
.globl	ossl_vaes_vpclmulqdq_capable
.type	ossl_vaes_vpclmulqdq_capable,@function
.align	32
ossl_vaes_vpclmulqdq_capable:
	movq	OPENSSL_ia32cap_P+8(%rip),%rcx

	movq	$6600291188736,%rdx
	xorl	%eax,%eax
	andq	%rdx,%rcx
	cmpq	%rdx,%rcx
	cmoveq	%rcx,%rax
	.byte	0xf3,0xc3
.size	ossl_vaes_vpclmulqdq_capable, .-ossl_vaes_vpclmulqdq_capable
.text	
.globl	ossl_aes_gcm_init_avx512
.type	ossl_aes_gcm_init_avx512,@function
.align	32
ossl_aes_gcm_init_avx512:
.cfi_startproc	
.byte	243,15,30,250
	vpxorq	%xmm16,%xmm16,%xmm16


	movl	240(%rdi),%eax
	cmpl	$9,%eax
	je	.Laes_128_ylthwezusDegEma
	cmpl	$11,%eax
	je	.Laes_192_ylthwezusDegEma
	cmpl	$13,%eax
	je	.Laes_256_ylthwezusDegEma
	jmp	.Lexit_aes_ylthwezusDegEma
.align	32
.Laes_128_ylthwezusDegEma:
	vpxorq	0(%rdi),%xmm16,%xmm16

	vaesenc	16(%rdi),%xmm16,%xmm16

	vaesenc	32(%rdi),%xmm16,%xmm16

	vaesenc	48(%rdi),%xmm16,%xmm16

	vaesenc	64(%rdi),%xmm16,%xmm16

	vaesenc	80(%rdi),%xmm16,%xmm16

	vaesenc	96(%rdi),%xmm16,%xmm16

	vaesenc	112(%rdi),%xmm16,%xmm16

	vaesenc	128(%rdi),%xmm16,%xmm16

	vaesenc	144(%rdi),%xmm16,%xmm16

	vaesenclast	160(%rdi),%xmm16,%xmm16
	jmp	.Lexit_aes_ylthwezusDegEma
.align	32
.Laes_192_ylthwezusDegEma:
	vpxorq	0(%rdi),%xmm16,%xmm16

	vaesenc	16(%rdi),%xmm16,%xmm16

	vaesenc	32(%rdi),%xmm16,%xmm16

	vaesenc	48(%rdi),%xmm16,%xmm16

	vaesenc	64(%rdi),%xmm16,%xmm16

	vaesenc	80(%rdi),%xmm16,%xmm16

	vaesenc	96(%rdi),%xmm16,%xmm16

	vaesenc	112(%rdi),%xmm16,%xmm16

	vaesenc	128(%rdi),%xmm16,%xmm16

	vaesenc	144(%rdi),%xmm16,%xmm16

	vaesenc	160(%rdi),%xmm16,%xmm16

	vaesenc	176(%rdi),%xmm16,%xmm16

	vaesenclast	192(%rdi),%xmm16,%xmm16
	jmp	.Lexit_aes_ylthwezusDegEma
.align	32
.Laes_256_ylthwezusDegEma:
	vpxorq	0(%rdi),%xmm16,%xmm16

	vaesenc	16(%rdi),%xmm16,%xmm16

	vaesenc	32(%rdi),%xmm16,%xmm16

	vaesenc	48(%rdi),%xmm16,%xmm16

	vaesenc	64(%rdi),%xmm16,%xmm16

	vaesenc	80(%rdi),%xmm16,%xmm16

	vaesenc	96(%rdi),%xmm16,%xmm16

	vaesenc	112(%rdi),%xmm16,%xmm16

	vaesenc	128(%rdi),%xmm16,%xmm16

	vaesenc	144(%rdi),%xmm16,%xmm16

	vaesenc	160(%rdi),%xmm16,%xmm16

	vaesenc	176(%rdi),%xmm16,%xmm16

	vaesenc	192(%rdi),%xmm16,%xmm16

	vaesenc	208(%rdi),%xmm16,%xmm16

	vaesenclast	224(%rdi),%xmm16,%xmm16
	jmp	.Lexit_aes_ylthwezusDegEma
.Lexit_aes_ylthwezusDegEma:

	vpshufb	SHUF_MASK(%rip),%xmm16,%xmm16

	vmovdqa64	%xmm16,%xmm2
	vpsllq	$1,%xmm16,%xmm16
	vpsrlq	$63,%xmm2,%xmm2
	vmovdqa	%xmm2,%xmm1
	vpslldq	$8,%xmm2,%xmm2
	vpsrldq	$8,%xmm1,%xmm1
	vporq	%xmm2,%xmm16,%xmm16

	vpshufd	$36,%xmm1,%xmm2
	vpcmpeqd	TWOONE(%rip),%xmm2,%xmm2
	vpand	POLY(%rip),%xmm2,%xmm2
	vpxorq	%xmm2,%xmm16,%xmm16

	vmovdqu64	%xmm16,336(%rsi)
	vshufi32x4	$0x00,%ymm16,%ymm16,%ymm4
	vmovdqa	%ymm4,%ymm3

	vpclmulqdq	$0x11,%ymm4,%ymm3,%ymm0
	vpclmulqdq	$0x00,%ymm4,%ymm3,%ymm1
	vpclmulqdq	$0x01,%ymm4,%ymm3,%ymm2
	vpclmulqdq	$0x10,%ymm4,%ymm3,%ymm3
	vpxorq	%ymm2,%ymm3,%ymm3

	vpsrldq	$8,%ymm3,%ymm2
	vpslldq	$8,%ymm3,%ymm3
	vpxorq	%ymm2,%ymm0,%ymm0
	vpxorq	%ymm1,%ymm3,%ymm3



	vmovdqu64	POLY2(%rip),%ymm2

	vpclmulqdq	$0x01,%ymm3,%ymm2,%ymm1
	vpslldq	$8,%ymm1,%ymm1
	vpxorq	%ymm1,%ymm3,%ymm3



	vpclmulqdq	$0x00,%ymm3,%ymm2,%ymm1
	vpsrldq	$4,%ymm1,%ymm1
	vpclmulqdq	$0x10,%ymm3,%ymm2,%ymm3
	vpslldq	$4,%ymm3,%ymm3

	vpternlogq	$0x96,%ymm1,%ymm0,%ymm3

	vmovdqu64	%xmm3,320(%rsi)
	vinserti64x2	$1,%xmm16,%ymm3,%ymm4
	vmovdqa64	%ymm4,%ymm5

	vpclmulqdq	$0x11,%ymm3,%ymm4,%ymm0
	vpclmulqdq	$0x00,%ymm3,%ymm4,%ymm1
	vpclmulqdq	$0x01,%ymm3,%ymm4,%ymm2
	vpclmulqdq	$0x10,%ymm3,%ymm4,%ymm4
	vpxorq	%ymm2,%ymm4,%ymm4

	vpsrldq	$8,%ymm4,%ymm2
	vpslldq	$8,%ymm4,%ymm4
	vpxorq	%ymm2,%ymm0,%ymm0
	vpxorq	%ymm1,%ymm4,%ymm4



	vmovdqu64	POLY2(%rip),%ymm2

	vpclmulqdq	$0x01,%ymm4,%ymm2,%ymm1
	vpslldq	$8,%ymm1,%ymm1
	vpxorq	%ymm1,%ymm4,%ymm4



	vpclmulqdq	$0x00,%ymm4,%ymm2,%ymm1
	vpsrldq	$4,%ymm1,%ymm1
	vpclmulqdq	$0x10,%ymm4,%ymm2,%ymm4
	vpslldq	$4,%ymm4,%ymm4

	vpternlogq	$0x96,%ymm1,%ymm0,%ymm4

	vmovdqu64	%ymm4,288(%rsi)

	vinserti64x4	$1,%ymm5,%zmm4,%zmm4


	vshufi64x2	$0x00,%zmm4,%zmm4,%zmm3
	vmovdqa64	%zmm4,%zmm5

	vpclmulqdq	$0x11,%zmm3,%zmm4,%zmm0
	vpclmulqdq	$0x00,%zmm3,%zmm4,%zmm1
	vpclmulqdq	$0x01,%zmm3,%zmm4,%zmm2
	vpclmulqdq	$0x10,%zmm3,%zmm4,%zmm4
	vpxorq	%zmm2,%zmm4,%zmm4

	vpsrldq	$8,%zmm4,%zmm2
	vpslldq	$8,%zmm4,%zmm4
	vpxorq	%zmm2,%zmm0,%zmm0
	vpxorq	%zmm1,%zmm4,%zmm4



	vmovdqu64	POLY2(%rip),%zmm2

	vpclmulqdq	$0x01,%zmm4,%zmm2,%zmm1
	vpslldq	$8,%zmm1,%zmm1
	vpxorq	%zmm1,%zmm4,%zmm4



	vpclmulqdq	$0x00,%zmm4,%zmm2,%zmm1
	vpsrldq	$4,%zmm1,%zmm1
	vpclmulqdq	$0x10,%zmm4,%zmm2,%zmm4
	vpslldq	$4,%zmm4,%zmm4

	vpternlogq	$0x96,%zmm1,%zmm0,%zmm4

	vmovdqu64	%zmm4,224(%rsi)
	vshufi64x2	$0x00,%zmm4,%zmm4,%zmm3

	vpclmulqdq	$0x11,%zmm3,%zmm5,%zmm0
	vpclmulqdq	$0x00,%zmm3,%zmm5,%zmm1
	vpclmulqdq	$0x01,%zmm3,%zmm5,%zmm2
	vpclmulqdq	$0x10,%zmm3,%zmm5,%zmm5
	vpxorq	%zmm2,%zmm5,%zmm5

	vpsrldq	$8,%zmm5,%zmm2
	vpslldq	$8,%zmm5,%zmm5
	vpxorq	%zmm2,%zmm0,%zmm0
	vpxorq	%zmm1,%zmm5,%zmm5



	vmovdqu64	POLY2(%rip),%zmm2

	vpclmulqdq	$0x01,%zmm5,%zmm2,%zmm1
	vpslldq	$8,%zmm1,%zmm1
	vpxorq	%zmm1,%zmm5,%zmm5



	vpclmulqdq	$0x00,%zmm5,%zmm2,%zmm1
	vpsrldq	$4,%zmm1,%zmm1
	vpclmulqdq	$0x10,%zmm5,%zmm2,%zmm5
	vpslldq	$4,%zmm5,%zmm5

	vpternlogq	$0x96,%zmm1,%zmm0,%zmm5

	vmovdqu64	%zmm5,160(%rsi)

	vpclmulqdq	$0x11,%zmm3,%zmm4,%zmm0
	vpclmulqdq	$0x00,%zmm3,%zmm4,%zmm1
	vpclmulqdq	$0x01,%zmm3,%zmm4,%zmm2
	vpclmulqdq	$0x10,%zmm3,%zmm4,%zmm4
	vpxorq	%zmm2,%zmm4,%zmm4

	vpsrldq	$8,%zmm4,%zmm2
	vpslldq	$8,%zmm4,%zmm4
	vpxorq	%zmm2,%zmm0,%zmm0
	vpxorq	%zmm1,%zmm4,%zmm4



	vmovdqu64	POLY2(%rip),%zmm2

	vpclmulqdq	$0x01,%zmm4,%zmm2,%zmm1
	vpslldq	$8,%zmm1,%zmm1
	vpxorq	%zmm1,%zmm4,%zmm4



	vpclmulqdq	$0x00,%zmm4,%zmm2,%zmm1
	vpsrldq	$4,%zmm1,%zmm1
	vpclmulqdq	$0x10,%zmm4,%zmm2,%zmm4
	vpslldq	$4,%zmm4,%zmm4

	vpternlogq	$0x96,%zmm1,%zmm0,%zmm4

	vmovdqu64	%zmm4,96(%rsi)
	vzeroupper
.Labort_init:
	.byte	0xf3,0xc3
.cfi_endproc	
.size	ossl_aes_gcm_init_avx512, .-ossl_aes_gcm_init_avx512
.globl	ossl_aes_gcm_setiv_avx512
.type	ossl_aes_gcm_setiv_avx512,@function
.align	32
ossl_aes_gcm_setiv_avx512:
.cfi_startproc	
.Lsetiv_seh_begin:
.byte	243,15,30,250
	pushq	%rbx
.cfi_adjust_cfa_offset	8
.cfi_offset	%rbx,-16
.Lsetiv_seh_push_rbx:
	pushq	%rbp
.cfi_adjust_cfa_offset	8
.cfi_offset	%rbp,-24
.Lsetiv_seh_push_rbp:
	pushq	%r12
.cfi_adjust_cfa_offset	8
.cfi_offset	%r12,-32
.Lsetiv_seh_push_r12:
	pushq	%r13
.cfi_adjust_cfa_offset	8
.cfi_offset	%r13,-40
.Lsetiv_seh_push_r13:
	pushq	%r14
.cfi_adjust_cfa_offset	8
.cfi_offset	%r14,-48
.Lsetiv_seh_push_r14:
	pushq	%r15
.cfi_adjust_cfa_offset	8
.cfi_offset	%r15,-56
.Lsetiv_seh_push_r15:










	leaq	0(%rsp),%rbp
.cfi_def_cfa_register	%rbp
.Lsetiv_seh_setfp:

.Lsetiv_seh_prolog_end:
	subq	$820,%rsp
	andq	$(-64),%rsp
	cmpq	$12,%rcx
	je	iv_len_12_init_IV
	vpxor	%xmm2,%xmm2,%xmm2
	movq	%rdx,%r10
	movq	%rcx,%r11
	orq	%r11,%r11
	jz	.L_CALC_AAD_done_qAxEfwhyiBvGaCE

	xorq	%rbx,%rbx
	vmovdqa64	SHUF_MASK(%rip),%zmm16

.L_get_AAD_loop48x16_qAxEfwhyiBvGaCE:
	cmpq	$768,%r11
	jl	.L_exit_AAD_loop48x16_qAxEfwhyiBvGaCE
	vmovdqu64	0(%r10),%zmm11
	vmovdqu64	64(%r10),%zmm3
	vmovdqu64	128(%r10),%zmm4
	vmovdqu64	192(%r10),%zmm5
	vpshufb	%zmm16,%zmm11,%zmm11
	vpshufb	%zmm16,%zmm3,%zmm3
	vpshufb	%zmm16,%zmm4,%zmm4
	vpshufb	%zmm16,%zmm5,%zmm5
	testq	%rbx,%rbx
	jnz	.L_skip_hkeys_precomputation_cAuiklAjCjAwsDz

	vmovdqu64	288(%rsi),%zmm1
	vmovdqu64	%zmm1,704(%rsp)

	vmovdqu64	224(%rsi),%zmm9
	vmovdqu64	%zmm9,640(%rsp)


	vshufi64x2	$0x00,%zmm9,%zmm9,%zmm9

	vmovdqu64	160(%rsi),%zmm10
	vmovdqu64	%zmm10,576(%rsp)

	vmovdqu64	96(%rsi),%zmm12
	vmovdqu64	%zmm12,512(%rsp)

	vpclmulqdq	$0x11,%zmm9,%zmm10,%zmm13
	vpclmulqdq	$0x00,%zmm9,%zmm10,%zmm15
	vpclmulqdq	$0x01,%zmm9,%zmm10,%zmm17
	vpclmulqdq	$0x10,%zmm9,%zmm10,%zmm10
	vpxorq	%zmm17,%zmm10,%zmm10

	vpsrldq	$8,%zmm10,%zmm17
	vpslldq	$8,%zmm10,%zmm10
	vpxorq	%zmm17,%zmm13,%zmm13
	vpxorq	%zmm15,%zmm10,%zmm10



	vmovdqu64	POLY2(%rip),%zmm17

	vpclmulqdq	$0x01,%zmm10,%zmm17,%zmm15
	vpslldq	$8,%zmm15,%zmm15
	vpxorq	%zmm15,%zmm10,%zmm10



	vpclmulqdq	$0x00,%zmm10,%zmm17,%zmm15
	vpsrldq	$4,%zmm15,%zmm15
	vpclmulqdq	$0x10,%zmm10,%zmm17,%zmm10
	vpslldq	$4,%zmm10,%zmm10

	vpternlogq	$0x96,%zmm15,%zmm13,%zmm10

	vmovdqu64	%zmm10,448(%rsp)

	vpclmulqdq	$0x11,%zmm9,%zmm12,%zmm13
	vpclmulqdq	$0x00,%zmm9,%zmm12,%zmm15
	vpclmulqdq	$0x01,%zmm9,%zmm12,%zmm17
	vpclmulqdq	$0x10,%zmm9,%zmm12,%zmm12
	vpxorq	%zmm17,%zmm12,%zmm12

	vpsrldq	$8,%zmm12,%zmm17
	vpslldq	$8,%zmm12,%zmm12
	vpxorq	%zmm17,%zmm13,%zmm13
	vpxorq	%zmm15,%zmm12,%zmm12



	vmovdqu64	POLY2(%rip),%zmm17

	vpclmulqdq	$0x01,%zmm12,%zmm17,%zmm15
	vpslldq	$8,%zmm15,%zmm15
	vpxorq	%zmm15,%zmm12,%zmm12



	vpclmulqdq	$0x00,%zmm12,%zmm17,%zmm15
	vpsrldq	$4,%zmm15,%zmm15
	vpclmulqdq	$0x10,%zmm12,%zmm17,%zmm12
	vpslldq	$4,%zmm12,%zmm12

	vpternlogq	$0x96,%zmm15,%zmm13,%zmm12

	vmovdqu64	%zmm12,384(%rsp)

	vpclmulqdq	$0x11,%zmm9,%zmm10,%zmm13
	vpclmulqdq	$0x00,%zmm9,%zmm10,%zmm15
	vpclmulqdq	$0x01,%zmm9,%zmm10,%zmm17
	vpclmulqdq	$0x10,%zmm9,%zmm10,%zmm10
	vpxorq	%zmm17,%zmm10,%zmm10

	vpsrldq	$8,%zmm10,%zmm17
	vpslldq	$8,%zmm10,%zmm10
	vpxorq	%zmm17,%zmm13,%zmm13
	vpxorq	%zmm15,%zmm10,%zmm10



	vmovdqu64	POLY2(%rip),%zmm17

	vpclmulqdq	$0x01,%zmm10,%zmm17,%zmm15
	vpslldq	$8,%zmm15,%zmm15
	vpxorq	%zmm15,%zmm10,%zmm10



	vpclmulqdq	$0x00,%zmm10,%zmm17,%zmm15
	vpsrldq	$4,%zmm15,%zmm15
	vpclmulqdq	$0x10,%zmm10,%zmm17,%zmm10
	vpslldq	$4,%zmm10,%zmm10

	vpternlogq	$0x96,%zmm15,%zmm13,%zmm10

	vmovdqu64	%zmm10,320(%rsp)

	vpclmulqdq	$0x11,%zmm9,%zmm12,%zmm13
	vpclmulqdq	$0x00,%zmm9,%zmm12,%zmm15
	vpclmulqdq	$0x01,%zmm9,%zmm12,%zmm17
	vpclmulqdq	$0x10,%zmm9,%zmm12,%zmm12
	vpxorq	%zmm17,%zmm12,%zmm12

	vpsrldq	$8,%zmm12,%zmm17
	vpslldq	$8,%zmm12,%zmm12
	vpxorq	%zmm17,%zmm13,%zmm13
	vpxorq	%zmm15,%zmm12,%zmm12



	vmovdqu64	POLY2(%rip),%zmm17

	vpclmulqdq	$0x01,%zmm12,%zmm17,%zmm15
	vpslldq	$8,%zmm15,%zmm15
	vpxorq	%zmm15,%zmm12,%zmm12



	vpclmulqdq	$0x00,%zmm12,%zmm17,%zmm15
	vpsrldq	$4,%zmm15,%zmm15
	vpclmulqdq	$0x10,%zmm12,%zmm17,%zmm12
	vpslldq	$4,%zmm12,%zmm12

	vpternlogq	$0x96,%zmm15,%zmm13,%zmm12

	vmovdqu64	%zmm12,256(%rsp)

	vpclmulqdq	$0x11,%zmm9,%zmm10,%zmm13
	vpclmulqdq	$0x00,%zmm9,%zmm10,%zmm15
	vpclmulqdq	$0x01,%zmm9,%zmm10,%zmm17
	vpclmulqdq	$0x10,%zmm9,%zmm10,%zmm10
	vpxorq	%zmm17,%zmm10,%zmm10

	vpsrldq	$8,%zmm10,%zmm17
	vpslldq	$8,%zmm10,%zmm10
	vpxorq	%zmm17,%zmm13,%zmm13
	vpxorq	%zmm15,%zmm10,%zmm10



	vmovdqu64	POLY2(%rip),%zmm17

	vpclmulqdq	$0x01,%zmm10,%zmm17,%zmm15
	vpslldq	$8,%zmm15,%zmm15
	vpxorq	%zmm15,%zmm10,%zmm10



	vpclmulqdq	$0x00,%zmm10,%zmm17,%zmm15
	vpsrldq	$4,%zmm15,%zmm15
	vpclmulqdq	$0x10,%zmm10,%zmm17,%zmm10
	vpslldq	$4,%zmm10,%zmm10

	vpternlogq	$0x96,%zmm15,%zmm13,%zmm10

	vmovdqu64	%zmm10,192(%rsp)

	vpclmulqdq	$0x11,%zmm9,%zmm12,%zmm13
	vpclmulqdq	$0x00,%zmm9,%zmm12,%zmm15
	vpclmulqdq	$0x01,%zmm9,%zmm12,%zmm17
	vpclmulqdq	$0x10,%zmm9,%zmm12,%zmm12
	vpxorq	%zmm17,%zmm12,%zmm12

	vpsrldq	$8,%zmm12,%zmm17
	vpslldq	$8,%zmm12,%zmm12
	vpxorq	%zmm17,%zmm13,%zmm13
	vpxorq	%zmm15,%zmm12,%zmm12



	vmovdqu64	POLY2(%rip),%zmm17

	vpclmulqdq	$0x01,%zmm12,%zmm17,%zmm15
	vpslldq	$8,%zmm15,%zmm15
	vpxorq	%zmm15,%zmm12,%zmm12



	vpclmulqdq	$0x00,%zmm12,%zmm17,%zmm15
	vpsrldq	$4,%zmm15,%zmm15
	vpclmulqdq	$0x10,%zmm12,%zmm17,%zmm12
	vpslldq	$4,%zmm12,%zmm12

	vpternlogq	$0x96,%zmm15,%zmm13,%zmm12

	vmovdqu64	%zmm12,128(%rsp)

	vpclmulqdq	$0x11,%zmm9,%zmm10,%zmm13
	vpclmulqdq	$0x00,%zmm9,%zmm10,%zmm15
	vpclmulqdq	$0x01,%zmm9,%zmm10,%zmm17
	vpclmulqdq	$0x10,%zmm9,%zmm10,%zmm10
	vpxorq	%zmm17,%zmm10,%zmm10

	vpsrldq	$8,%zmm10,%zmm17
	vpslldq	$8,%zmm10,%zmm10
	vpxorq	%zmm17,%zmm13,%zmm13
	vpxorq	%zmm15,%zmm10,%zmm10



	vmovdqu64	POLY2(%rip),%zmm17

	vpclmulqdq	$0x01,%zmm10,%zmm17,%zmm15
	vpslldq	$8,%zmm15,%zmm15
	vpxorq	%zmm15,%zmm10,%zmm10



	vpclmulqdq	$0x00,%zmm10,%zmm17,%zmm15
	vpsrldq	$4,%zmm15,%zmm15
	vpclmulqdq	$0x10,%zmm10,%zmm17,%zmm10
	vpslldq	$4,%zmm10,%zmm10

	vpternlogq	$0x96,%zmm15,%zmm13,%zmm10

	vmovdqu64	%zmm10,64(%rsp)

	vpclmulqdq	$0x11,%zmm9,%zmm12,%zmm13
	vpclmulqdq	$0x00,%zmm9,%zmm12,%zmm15
	vpclmulqdq	$0x01,%zmm9,%zmm12,%zmm17
	vpclmulqdq	$0x10,%zmm9,%zmm12,%zmm12
	vpxorq	%zmm17,%zmm12,%zmm12

	vpsrldq	$8,%zmm12,%zmm17
	vpslldq	$8,%zmm12,%zmm12
	vpxorq	%zmm17,%zmm13,%zmm13
	vpxorq	%zmm15,%zmm12,%zmm12



	vmovdqu64	POLY2(%rip),%zmm17

	vpclmulqdq	$0x01,%zmm12,%zmm17,%zmm15
	vpslldq	$8,%zmm15,%zmm15
	vpxorq	%zmm15,%zmm12,%zmm12



	vpclmulqdq	$0x00,%zmm12,%zmm17,%zmm15
	vpsrldq	$4,%zmm15,%zmm15
	vpclmulqdq	$0x10,%zmm12,%zmm17,%zmm12
	vpslldq	$4,%zmm12,%zmm12

	vpternlogq	$0x96,%zmm15,%zmm13,%zmm12

	vmovdqu64	%zmm12,0(%rsp)
.L_skip_hkeys_precomputation_cAuiklAjCjAwsDz:
	movq	$1,%rbx
	vpxorq	%zmm2,%zmm11,%zmm11
	vmovdqu64	0(%rsp),%zmm19
	vpclmulqdq	$0x11,%zmm19,%zmm11,%zmm1
	vpclmulqdq	$0x00,%zmm19,%zmm11,%zmm9
	vpclmulqdq	$0x01,%zmm19,%zmm11,%zmm10
	vpclmulqdq	$0x10,%zmm19,%zmm11,%zmm12
	vmovdqu64	64(%rsp),%zmm19
	vpclmulqdq	$0x11,%zmm19,%zmm3,%zmm13
	vpclmulqdq	$0x00,%zmm19,%zmm3,%zmm15
	vpclmulqdq	$0x01,%zmm19,%zmm3,%zmm17
	vpclmulqdq	$0x10,%zmm19,%zmm3,%zmm18
	vpxorq	%zmm17,%zmm10,%zmm7
	vpxorq	%zmm13,%zmm1,%zmm6
	vpxorq	%zmm15,%zmm9,%zmm8
	vpternlogq	$0x96,%zmm18,%zmm12,%zmm7
	vmovdqu64	128(%rsp),%zmm19
	vpclmulqdq	$0x11,%zmm19,%zmm4,%zmm1
	vpclmulqdq	$0x00,%zmm19,%zmm4,%zmm9
	vpclmulqdq	$0x01,%zmm19,%zmm4,%zmm10
	vpclmulqdq	$0x10,%zmm19,%zmm4,%zmm12
	vmovdqu64	192(%rsp),%zmm19
	vpclmulqdq	$0x11,%zmm19,%zmm5,%zmm13
	vpclmulqdq	$0x00,%zmm19,%zmm5,%zmm15
	vpclmulqdq	$0x01,%zmm19,%zmm5,%zmm17
	vpclmulqdq	$0x10,%zmm19,%zmm5,%zmm18

	vpternlogq	$0x96,%zmm17,%zmm10,%zmm7
	vpternlogq	$0x96,%zmm13,%zmm1,%zmm6
	vpternlogq	$0x96,%zmm15,%zmm9,%zmm8
	vpternlogq	$0x96,%zmm18,%zmm12,%zmm7
	vmovdqu64	256(%r10),%zmm11
	vmovdqu64	320(%r10),%zmm3
	vmovdqu64	384(%r10),%zmm4
	vmovdqu64	448(%r10),%zmm5
	vpshufb	%zmm16,%zmm11,%zmm11
	vpshufb	%zmm16,%zmm3,%zmm3
	vpshufb	%zmm16,%zmm4,%zmm4
	vpshufb	%zmm16,%zmm5,%zmm5
	vmovdqu64	256(%rsp),%zmm19
	vpclmulqdq	$0x11,%zmm19,%zmm11,%zmm1
	vpclmulqdq	$0x00,%zmm19,%zmm11,%zmm9
	vpclmulqdq	$0x01,%zmm19,%zmm11,%zmm10
	vpclmulqdq	$0x10,%zmm19,%zmm11,%zmm12
	vmovdqu64	320(%rsp),%zmm19
	vpclmulqdq	$0x11,%zmm19,%zmm3,%zmm13
	vpclmulqdq	$0x00,%zmm19,%zmm3,%zmm15
	vpclmulqdq	$0x01,%zmm19,%zmm3,%zmm17
	vpclmulqdq	$0x10,%zmm19,%zmm3,%zmm18
	vpternlogq	$0x96,%zmm17,%zmm10,%zmm7
	vpternlogq	$0x96,%zmm13,%zmm1,%zmm6
	vpternlogq	$0x96,%zmm15,%zmm9,%zmm8
	vpternlogq	$0x96,%zmm18,%zmm12,%zmm7
	vmovdqu64	384(%rsp),%zmm19
	vpclmulqdq	$0x11,%zmm19,%zmm4,%zmm1
	vpclmulqdq	$0x00,%zmm19,%zmm4,%zmm9
	vpclmulqdq	$0x01,%zmm19,%zmm4,%zmm10
	vpclmulqdq	$0x10,%zmm19,%zmm4,%zmm12
	vmovdqu64	448(%rsp),%zmm19
	vpclmulqdq	$0x11,%zmm19,%zmm5,%zmm13
	vpclmulqdq	$0x00,%zmm19,%zmm5,%zmm15
	vpclmulqdq	$0x01,%zmm19,%zmm5,%zmm17
	vpclmulqdq	$0x10,%zmm19,%zmm5,%zmm18

	vpternlogq	$0x96,%zmm17,%zmm10,%zmm7
	vpternlogq	$0x96,%zmm13,%zmm1,%zmm6
	vpternlogq	$0x96,%zmm15,%zmm9,%zmm8
	vpternlogq	$0x96,%zmm18,%zmm12,%zmm7
	vmovdqu64	512(%r10),%zmm11
	vmovdqu64	576(%r10),%zmm3
	vmovdqu64	640(%r10),%zmm4
	vmovdqu64	704(%r10),%zmm5
	vpshufb	%zmm16,%zmm11,%zmm11
	vpshufb	%zmm16,%zmm3,%zmm3
	vpshufb	%zmm16,%zmm4,%zmm4
	vpshufb	%zmm16,%zmm5,%zmm5
	vmovdqu64	512(%rsp),%zmm19
	vpclmulqdq	$0x11,%zmm19,%zmm11,%zmm1
	vpclmulqdq	$0x00,%zmm19,%zmm11,%zmm9
	vpclmulqdq	$0x01,%zmm19,%zmm11,%zmm10
	vpclmulqdq	$0x10,%zmm19,%zmm11,%zmm12
	vmovdqu64	576(%rsp),%zmm19
	vpclmulqdq	$0x11,%zmm19,%zmm3,%zmm13
	vpclmulqdq	$0x00,%zmm19,%zmm3,%zmm15
	vpclmulqdq	$0x01,%zmm19,%zmm3,%zmm17
	vpclmulqdq	$0x10,%zmm19,%zmm3,%zmm18
	vpternlogq	$0x96,%zmm17,%zmm10,%zmm7
	vpternlogq	$0x96,%zmm13,%zmm1,%zmm6
	vpternlogq	$0x96,%zmm15,%zmm9,%zmm8
	vpternlogq	$0x96,%zmm18,%zmm12,%zmm7
	vmovdqu64	640(%rsp),%zmm19
	vpclmulqdq	$0x11,%zmm19,%zmm4,%zmm1
	vpclmulqdq	$0x00,%zmm19,%zmm4,%zmm9
	vpclmulqdq	$0x01,%zmm19,%zmm4,%zmm10
	vpclmulqdq	$0x10,%zmm19,%zmm4,%zmm12
	vmovdqu64	704(%rsp),%zmm19
	vpclmulqdq	$0x11,%zmm19,%zmm5,%zmm13
	vpclmulqdq	$0x00,%zmm19,%zmm5,%zmm15
	vpclmulqdq	$0x01,%zmm19,%zmm5,%zmm17
	vpclmulqdq	$0x10,%zmm19,%zmm5,%zmm18

	vpternlogq	$0x96,%zmm17,%zmm10,%zmm7
	vpternlogq	$0x96,%zmm13,%zmm1,%zmm6
	vpternlogq	$0x96,%zmm15,%zmm9,%zmm8
	vpternlogq	$0x96,%zmm18,%zmm12,%zmm7

	vpsrldq	$8,%zmm7,%zmm1
	vpslldq	$8,%zmm7,%zmm9
	vpxorq	%zmm1,%zmm6,%zmm6
	vpxorq	%zmm9,%zmm8,%zmm8
	vextracti64x4	$1,%zmm6,%ymm1
	vpxorq	%ymm1,%ymm6,%ymm6
	vextracti32x4	$1,%ymm6,%xmm1
	vpxorq	%xmm1,%xmm6,%xmm6
	vextracti64x4	$1,%zmm8,%ymm9
	vpxorq	%ymm9,%ymm8,%ymm8
	vextracti32x4	$1,%ymm8,%xmm9
	vpxorq	%xmm9,%xmm8,%xmm8
	vmovdqa64	POLY2(%rip),%xmm10


	vpclmulqdq	$0x01,%xmm8,%xmm10,%xmm1
	vpslldq	$8,%xmm1,%xmm1
	vpxorq	%xmm1,%xmm8,%xmm1


	vpclmulqdq	$0x00,%xmm1,%xmm10,%xmm9
	vpsrldq	$4,%xmm9,%xmm9
	vpclmulqdq	$0x10,%xmm1,%xmm10,%xmm2
	vpslldq	$4,%xmm2,%xmm2
	vpternlogq	$0x96,%xmm6,%xmm9,%xmm2

	subq	$768,%r11
	je	.L_CALC_AAD_done_qAxEfwhyiBvGaCE

	addq	$768,%r10
	jmp	.L_get_AAD_loop48x16_qAxEfwhyiBvGaCE

.L_exit_AAD_loop48x16_qAxEfwhyiBvGaCE:

	cmpq	$512,%r11
	jl	.L_less_than_32x16_qAxEfwhyiBvGaCE

	vmovdqu64	0(%r10),%zmm11
	vmovdqu64	64(%r10),%zmm3
	vmovdqu64	128(%r10),%zmm4
	vmovdqu64	192(%r10),%zmm5
	vpshufb	%zmm16,%zmm11,%zmm11
	vpshufb	%zmm16,%zmm3,%zmm3
	vpshufb	%zmm16,%zmm4,%zmm4
	vpshufb	%zmm16,%zmm5,%zmm5
	testq	%rbx,%rbx
	jnz	.L_skip_hkeys_precomputation_caGsmDluGtCoCgv

	vmovdqu64	288(%rsi),%zmm1
	vmovdqu64	%zmm1,704(%rsp)

	vmovdqu64	224(%rsi),%zmm9
	vmovdqu64	%zmm9,640(%rsp)


	vshufi64x2	$0x00,%zmm9,%zmm9,%zmm9

	vmovdqu64	160(%rsi),%zmm10
	vmovdqu64	%zmm10,576(%rsp)

	vmovdqu64	96(%rsi),%zmm12
	vmovdqu64	%zmm12,512(%rsp)

	vpclmulqdq	$0x11,%zmm9,%zmm10,%zmm13
	vpclmulqdq	$0x00,%zmm9,%zmm10,%zmm15
	vpclmulqdq	$0x01,%zmm9,%zmm10,%zmm17
	vpclmulqdq	$0x10,%zmm9,%zmm10,%zmm10
	vpxorq	%zmm17,%zmm10,%zmm10

	vpsrldq	$8,%zmm10,%zmm17
	vpslldq	$8,%zmm10,%zmm10
	vpxorq	%zmm17,%zmm13,%zmm13
	vpxorq	%zmm15,%zmm10,%zmm10



	vmovdqu64	POLY2(%rip),%zmm17

	vpclmulqdq	$0x01,%zmm10,%zmm17,%zmm15
	vpslldq	$8,%zmm15,%zmm15
	vpxorq	%zmm15,%zmm10,%zmm10



	vpclmulqdq	$0x00,%zmm10,%zmm17,%zmm15
	vpsrldq	$4,%zmm15,%zmm15
	vpclmulqdq	$0x10,%zmm10,%zmm17,%zmm10
	vpslldq	$4,%zmm10,%zmm10

	vpternlogq	$0x96,%zmm15,%zmm13,%zmm10

	vmovdqu64	%zmm10,448(%rsp)

	vpclmulqdq	$0x11,%zmm9,%zmm12,%zmm13
	vpclmulqdq	$0x00,%zmm9,%zmm12,%zmm15
	vpclmulqdq	$0x01,%zmm9,%zmm12,%zmm17
	vpclmulqdq	$0x10,%zmm9,%zmm12,%zmm12
	vpxorq	%zmm17,%zmm12,%zmm12

	vpsrldq	$8,%zmm12,%zmm17
	vpslldq	$8,%zmm12,%zmm12
	vpxorq	%zmm17,%zmm13,%zmm13
	vpxorq	%zmm15,%zmm12,%zmm12



	vmovdqu64	POLY2(%rip),%zmm17

	vpclmulqdq	$0x01,%zmm12,%zmm17,%zmm15
	vpslldq	$8,%zmm15,%zmm15
	vpxorq	%zmm15,%zmm12,%zmm12



	vpclmulqdq	$0x00,%zmm12,%zmm17,%zmm15
	vpsrldq	$4,%zmm15,%zmm15
	vpclmulqdq	$0x10,%zmm12,%zmm17,%zmm12
	vpslldq	$4,%zmm12,%zmm12

	vpternlogq	$0x96,%zmm15,%zmm13,%zmm12

	vmovdqu64	%zmm12,384(%rsp)

	vpclmulqdq	$0x11,%zmm9,%zmm10,%zmm13
	vpclmulqdq	$0x00,%zmm9,%zmm10,%zmm15
	vpclmulqdq	$0x01,%zmm9,%zmm10,%zmm17
	vpclmulqdq	$0x10,%zmm9,%zmm10,%zmm10
	vpxorq	%zmm17,%zmm10,%zmm10

	vpsrldq	$8,%zmm10,%zmm17
	vpslldq	$8,%zmm10,%zmm10
	vpxorq	%zmm17,%zmm13,%zmm13
	vpxorq	%zmm15,%zmm10,%zmm10



	vmovdqu64	POLY2(%rip),%zmm17

	vpclmulqdq	$0x01,%zmm10,%zmm17,%zmm15
	vpslldq	$8,%zmm15,%zmm15
	vpxorq	%zmm15,%zmm10,%zmm10



	vpclmulqdq	$0x00,%zmm10,%zmm17,%zmm15
	vpsrldq	$4,%zmm15,%zmm15
	vpclmulqdq	$0x10,%zmm10,%zmm17,%zmm10
	vpslldq	$4,%zmm10,%zmm10

	vpternlogq	$0x96,%zmm15,%zmm13,%zmm10

	vmovdqu64	%zmm10,320(%rsp)

	vpclmulqdq	$0x11,%zmm9,%zmm12,%zmm13
	vpclmulqdq	$0x00,%zmm9,%zmm12,%zmm15
	vpclmulqdq	$0x01,%zmm9,%zmm12,%zmm17
	vpclmulqdq	$0x10,%zmm9,%zmm12,%zmm12
	vpxorq	%zmm17,%zmm12,%zmm12

	vpsrldq	$8,%zmm12,%zmm17
	vpslldq	$8,%zmm12,%zmm12
	vpxorq	%zmm17,%zmm13,%zmm13
	vpxorq	%zmm15,%zmm12,%zmm12



	vmovdqu64	POLY2(%rip),%zmm17

	vpclmulqdq	$0x01,%zmm12,%zmm17,%zmm15
	vpslldq	$8,%zmm15,%zmm15
	vpxorq	%zmm15,%zmm12,%zmm12



	vpclmulqdq	$0x00,%zmm12,%zmm17,%zmm15
	vpsrldq	$4,%zmm15,%zmm15
	vpclmulqdq	$0x10,%zmm12,%zmm17,%zmm12
	vpslldq	$4,%zmm12,%zmm12

	vpternlogq	$0x96,%zmm15,%zmm13,%zmm12

	vmovdqu64	%zmm12,256(%rsp)
.L_skip_hkeys_precomputation_caGsmDluGtCoCgv:
	movq	$1,%rbx
	vpxorq	%zmm2,%zmm11,%zmm11
	vmovdqu64	256(%rsp),%zmm19
	vpclmulqdq	$0x11,%zmm19,%zmm11,%zmm1
	vpclmulqdq	$0x00,%zmm19,%zmm11,%zmm9
	vpclmulqdq	$0x01,%zmm19,%zmm11,%zmm10
	vpclmulqdq	$0x10,%zmm19,%zmm11,%zmm12
	vmovdqu64	320(%rsp),%zmm19
	vpclmulqdq	$0x11,%zmm19,%zmm3,%zmm13
	vpclmulqdq	$0x00,%zmm19,%zmm3,%zmm15
	vpclmulqdq	$0x01,%zmm19,%zmm3,%zmm17
	vpclmulqdq	$0x10,%zmm19,%zmm3,%zmm18
	vpxorq	%zmm17,%zmm10,%zmm7
	vpxorq	%zmm13,%zmm1,%zmm6
	vpxorq	%zmm15,%zmm9,%zmm8
	vpternlogq	$0x96,%zmm18,%zmm12,%zmm7
	vmovdqu64	384(%rsp),%zmm19
	vpclmulqdq	$0x11,%zmm19,%zmm4,%zmm1
	vpclmulqdq	$0x00,%zmm19,%zmm4,%zmm9
	vpclmulqdq	$0x01,%zmm19,%zmm4,%zmm10
	vpclmulqdq	$0x10,%zmm19,%zmm4,%zmm12
	vmovdqu64	448(%rsp),%zmm19
	vpclmulqdq	$0x11,%zmm19,%zmm5,%zmm13
	vpclmulqdq	$0x00,%zmm19,%zmm5,%zmm15
	vpclmulqdq	$0x01,%zmm19,%zmm5,%zmm17
	vpclmulqdq	$0x10,%zmm19,%zmm5,%zmm18

	vpternlogq	$0x96,%zmm17,%zmm10,%zmm7
	vpternlogq	$0x96,%zmm13,%zmm1,%zmm6
	vpternlogq	$0x96,%zmm15,%zmm9,%zmm8
	vpternlogq	$0x96,%zmm18,%zmm12,%zmm7
	vmovdqu64	256(%r10),%zmm11
	vmovdqu64	320(%r10),%zmm3
	vmovdqu64	384(%r10),%zmm4
	vmovdqu64	448(%r10),%zmm5
	vpshufb	%zmm16,%zmm11,%zmm11
	vpshufb	%zmm16,%zmm3,%zmm3
	vpshufb	%zmm16,%zmm4,%zmm4
	vpshufb	%zmm16,%zmm5,%zmm5
	vmovdqu64	512(%rsp),%zmm19
	vpclmulqdq	$0x11,%zmm19,%zmm11,%zmm1
	vpclmulqdq	$0x00,%zmm19,%zmm11,%zmm9
	vpclmulqdq	$0x01,%zmm19,%zmm11,%zmm10
	vpclmulqdq	$0x10,%zmm19,%zmm11,%zmm12
	vmovdqu64	576(%rsp),%zmm19
	vpclmulqdq	$0x11,%zmm19,%zmm3,%zmm13
	vpclmulqdq	$0x00,%zmm19,%zmm3,%zmm15
	vpclmulqdq	$0x01,%zmm19,%zmm3,%zmm17
	vpclmulqdq	$0x10,%zmm19,%zmm3,%zmm18
	vpternlogq	$0x96,%zmm17,%zmm10,%zmm7
	vpternlogq	$0x96,%zmm13,%zmm1,%zmm6
	vpternlogq	$0x96,%zmm15,%zmm9,%zmm8
	vpternlogq	$0x96,%zmm18,%zmm12,%zmm7
	vmovdqu64	640(%rsp),%zmm19
	vpclmulqdq	$0x11,%zmm19,%zmm4,%zmm1
	vpclmulqdq	$0x00,%zmm19,%zmm4,%zmm9
	vpclmulqdq	$0x01,%zmm19,%zmm4,%zmm10
	vpclmulqdq	$0x10,%zmm19,%zmm4,%zmm12
	vmovdqu64	704(%rsp),%zmm19
	vpclmulqdq	$0x11,%zmm19,%zmm5,%zmm13
	vpclmulqdq	$0x00,%zmm19,%zmm5,%zmm15
	vpclmulqdq	$0x01,%zmm19,%zmm5,%zmm17
	vpclmulqdq	$0x10,%zmm19,%zmm5,%zmm18

	vpternlogq	$0x96,%zmm17,%zmm10,%zmm7
	vpternlogq	$0x96,%zmm13,%zmm1,%zmm6
	vpternlogq	$0x96,%zmm15,%zmm9,%zmm8
	vpternlogq	$0x96,%zmm18,%zmm12,%zmm7

	vpsrldq	$8,%zmm7,%zmm1
	vpslldq	$8,%zmm7,%zmm9
	vpxorq	%zmm1,%zmm6,%zmm6
	vpxorq	%zmm9,%zmm8,%zmm8
	vextracti64x4	$1,%zmm6,%ymm1
	vpxorq	%ymm1,%ymm6,%ymm6
	vextracti32x4	$1,%ymm6,%xmm1
	vpxorq	%xmm1,%xmm6,%xmm6
	vextracti64x4	$1,%zmm8,%ymm9
	vpxorq	%ymm9,%ymm8,%ymm8
	vextracti32x4	$1,%ymm8,%xmm9
	vpxorq	%xmm9,%xmm8,%xmm8
	vmovdqa64	POLY2(%rip),%xmm10


	vpclmulqdq	$0x01,%xmm8,%xmm10,%xmm1
	vpslldq	$8,%xmm1,%xmm1
	vpxorq	%xmm1,%xmm8,%xmm1


	vpclmulqdq	$0x00,%xmm1,%xmm10,%xmm9
	vpsrldq	$4,%xmm9,%xmm9
	vpclmulqdq	$0x10,%xmm1,%xmm10,%xmm2
	vpslldq	$4,%xmm2,%xmm2
	vpternlogq	$0x96,%xmm6,%xmm9,%xmm2

	subq	$512,%r11
	je	.L_CALC_AAD_done_qAxEfwhyiBvGaCE

	addq	$512,%r10
	jmp	.L_less_than_16x16_qAxEfwhyiBvGaCE

.L_less_than_32x16_qAxEfwhyiBvGaCE:
	cmpq	$256,%r11
	jl	.L_less_than_16x16_qAxEfwhyiBvGaCE

	vmovdqu64	0(%r10),%zmm11
	vmovdqu64	64(%r10),%zmm3
	vmovdqu64	128(%r10),%zmm4
	vmovdqu64	192(%r10),%zmm5
	vpshufb	%zmm16,%zmm11,%zmm11
	vpshufb	%zmm16,%zmm3,%zmm3
	vpshufb	%zmm16,%zmm4,%zmm4
	vpshufb	%zmm16,%zmm5,%zmm5
	vpxorq	%zmm2,%zmm11,%zmm11
	vmovdqu64	96(%rsi),%zmm19
	vpclmulqdq	$0x11,%zmm19,%zmm11,%zmm1
	vpclmulqdq	$0x00,%zmm19,%zmm11,%zmm9
	vpclmulqdq	$0x01,%zmm19,%zmm11,%zmm10
	vpclmulqdq	$0x10,%zmm19,%zmm11,%zmm12
	vmovdqu64	160(%rsi),%zmm19
	vpclmulqdq	$0x11,%zmm19,%zmm3,%zmm13
	vpclmulqdq	$0x00,%zmm19,%zmm3,%zmm15
	vpclmulqdq	$0x01,%zmm19,%zmm3,%zmm17
	vpclmulqdq	$0x10,%zmm19,%zmm3,%zmm18
	vpxorq	%zmm17,%zmm10,%zmm7
	vpxorq	%zmm13,%zmm1,%zmm6
	vpxorq	%zmm15,%zmm9,%zmm8
	vpternlogq	$0x96,%zmm18,%zmm12,%zmm7
	vmovdqu64	224(%rsi),%zmm19
	vpclmulqdq	$0x11,%zmm19,%zmm4,%zmm1
	vpclmulqdq	$0x00,%zmm19,%zmm4,%zmm9
	vpclmulqdq	$0x01,%zmm19,%zmm4,%zmm10
	vpclmulqdq	$0x10,%zmm19,%zmm4,%zmm12
	vmovdqu64	288(%rsi),%zmm19
	vpclmulqdq	$0x11,%zmm19,%zmm5,%zmm13
	vpclmulqdq	$0x00,%zmm19,%zmm5,%zmm15
	vpclmulqdq	$0x01,%zmm19,%zmm5,%zmm17
	vpclmulqdq	$0x10,%zmm19,%zmm5,%zmm18

	vpternlogq	$0x96,%zmm17,%zmm10,%zmm7
	vpternlogq	$0x96,%zmm13,%zmm1,%zmm6
	vpternlogq	$0x96,%zmm15,%zmm9,%zmm8
	vpternlogq	$0x96,%zmm18,%zmm12,%zmm7

	vpsrldq	$8,%zmm7,%zmm1
	vpslldq	$8,%zmm7,%zmm9
	vpxorq	%zmm1,%zmm6,%zmm6
	vpxorq	%zmm9,%zmm8,%zmm8
	vextracti64x4	$1,%zmm6,%ymm1
	vpxorq	%ymm1,%ymm6,%ymm6
	vextracti32x4	$1,%ymm6,%xmm1
	vpxorq	%xmm1,%xmm6,%xmm6
	vextracti64x4	$1,%zmm8,%ymm9
	vpxorq	%ymm9,%ymm8,%ymm8
	vextracti32x4	$1,%ymm8,%xmm9
	vpxorq	%xmm9,%xmm8,%xmm8
	vmovdqa64	POLY2(%rip),%xmm10


	vpclmulqdq	$0x01,%xmm8,%xmm10,%xmm1
	vpslldq	$8,%xmm1,%xmm1
	vpxorq	%xmm1,%xmm8,%xmm1


	vpclmulqdq	$0x00,%xmm1,%xmm10,%xmm9
	vpsrldq	$4,%xmm9,%xmm9
	vpclmulqdq	$0x10,%xmm1,%xmm10,%xmm2
	vpslldq	$4,%xmm2,%xmm2
	vpternlogq	$0x96,%xmm6,%xmm9,%xmm2

	subq	$256,%r11
	je	.L_CALC_AAD_done_qAxEfwhyiBvGaCE

	addq	$256,%r10

.L_less_than_16x16_qAxEfwhyiBvGaCE:

	leaq	byte64_len_to_mask_table(%rip),%r12
	leaq	(%r12,%r11,8),%r12


	addl	$15,%r11d
	shrl	$4,%r11d
	cmpl	$2,%r11d
	jb	.L_AAD_blocks_1_qAxEfwhyiBvGaCE
	je	.L_AAD_blocks_2_qAxEfwhyiBvGaCE
	cmpl	$4,%r11d
	jb	.L_AAD_blocks_3_qAxEfwhyiBvGaCE
	je	.L_AAD_blocks_4_qAxEfwhyiBvGaCE
	cmpl	$6,%r11d
	jb	.L_AAD_blocks_5_qAxEfwhyiBvGaCE
	je	.L_AAD_blocks_6_qAxEfwhyiBvGaCE
	cmpl	$8,%r11d
	jb	.L_AAD_blocks_7_qAxEfwhyiBvGaCE
	je	.L_AAD_blocks_8_qAxEfwhyiBvGaCE
	cmpl	$10,%r11d
	jb	.L_AAD_blocks_9_qAxEfwhyiBvGaCE
	je	.L_AAD_blocks_10_qAxEfwhyiBvGaCE
	cmpl	$12,%r11d
	jb	.L_AAD_blocks_11_qAxEfwhyiBvGaCE
	je	.L_AAD_blocks_12_qAxEfwhyiBvGaCE
	cmpl	$14,%r11d
	jb	.L_AAD_blocks_13_qAxEfwhyiBvGaCE
	je	.L_AAD_blocks_14_qAxEfwhyiBvGaCE
	cmpl	$15,%r11d
	je	.L_AAD_blocks_15_qAxEfwhyiBvGaCE
.L_AAD_blocks_16_qAxEfwhyiBvGaCE:
	subq	$1536,%r12
	kmovq	(%r12),%k1
	vmovdqu8	0(%r10),%zmm11
	vmovdqu8	64(%r10),%zmm3
	vmovdqu8	128(%r10),%zmm4
	vmovdqu8	192(%r10),%zmm5{%k1}{z}
	vpshufb	%zmm16,%zmm11,%zmm11
	vpshufb	%zmm16,%zmm3,%zmm3
	vpshufb	%zmm16,%zmm4,%zmm4
	vpshufb	%zmm16,%zmm5,%zmm5
	vpxorq	%zmm2,%zmm11,%zmm11
	vmovdqu64	96(%rsi),%zmm15
	vpclmulqdq	$0x11,%zmm15,%zmm11,%zmm1
	vpclmulqdq	$0x00,%zmm15,%zmm11,%zmm6
	vpclmulqdq	$0x01,%zmm15,%zmm11,%zmm7
	vpclmulqdq	$0x10,%zmm15,%zmm11,%zmm8
	vmovdqu64	160(%rsi),%zmm15
	vpclmulqdq	$0x11,%zmm15,%zmm3,%zmm9
	vpclmulqdq	$0x00,%zmm15,%zmm3,%zmm10
	vpclmulqdq	$0x01,%zmm15,%zmm3,%zmm12
	vpclmulqdq	$0x10,%zmm15,%zmm3,%zmm13
	vmovdqu64	224(%rsi),%zmm15
	vpclmulqdq	$0x11,%zmm15,%zmm4,%zmm11
	vpclmulqdq	$0x00,%zmm15,%zmm4,%zmm3
	vpternlogq	$0x96,%zmm9,%zmm11,%zmm1
	vpternlogq	$0x96,%zmm10,%zmm3,%zmm6
	vpclmulqdq	$0x01,%zmm15,%zmm4,%zmm11
	vpclmulqdq	$0x10,%zmm15,%zmm4,%zmm3
	vpternlogq	$0x96,%zmm12,%zmm11,%zmm7
	vpternlogq	$0x96,%zmm13,%zmm3,%zmm8
	vmovdqu64	288(%rsi),%zmm15
	vpclmulqdq	$0x11,%zmm15,%zmm5,%zmm9
	vpclmulqdq	$0x00,%zmm15,%zmm5,%zmm10
	vpclmulqdq	$0x01,%zmm15,%zmm5,%zmm12
	vpclmulqdq	$0x10,%zmm15,%zmm5,%zmm13
	vpxorq	%zmm9,%zmm1,%zmm9
	vpxorq	%zmm10,%zmm6,%zmm10
	vpxorq	%zmm12,%zmm7,%zmm12
	vpxorq	%zmm13,%zmm8,%zmm13

	vpxorq	%zmm13,%zmm12,%zmm12
	vpsrldq	$8,%zmm12,%zmm7
	vpslldq	$8,%zmm12,%zmm8
	vpxorq	%zmm7,%zmm9,%zmm1
	vpxorq	%zmm8,%zmm10,%zmm6
	vextracti64x4	$1,%zmm1,%ymm12
	vpxorq	%ymm12,%ymm1,%ymm1
	vextracti32x4	$1,%ymm1,%xmm12
	vpxorq	%xmm12,%xmm1,%xmm1
	vextracti64x4	$1,%zmm6,%ymm13
	vpxorq	%ymm13,%ymm6,%ymm6
	vextracti32x4	$1,%ymm6,%xmm13
	vpxorq	%xmm13,%xmm6,%xmm6
	vmovdqa64	POLY2(%rip),%xmm15


	vpclmulqdq	$0x01,%xmm6,%xmm15,%xmm7
	vpslldq	$8,%xmm7,%xmm7
	vpxorq	%xmm7,%xmm6,%xmm7


	vpclmulqdq	$0x00,%xmm7,%xmm15,%xmm8
	vpsrldq	$4,%xmm8,%xmm8
	vpclmulqdq	$0x10,%xmm7,%xmm15,%xmm2
	vpslldq	$4,%xmm2,%xmm2
	vpternlogq	$0x96,%xmm1,%xmm8,%xmm2

	jmp	.L_CALC_AAD_done_qAxEfwhyiBvGaCE
.L_AAD_blocks_15_qAxEfwhyiBvGaCE:
	subq	$1536,%r12
	kmovq	(%r12),%k1
	vmovdqu8	0(%r10),%zmm11
	vmovdqu8	64(%r10),%zmm3
	vmovdqu8	128(%r10),%zmm4
	vmovdqu8	192(%r10),%zmm5{%k1}{z}
	vpshufb	%zmm16,%zmm11,%zmm11
	vpshufb	%zmm16,%zmm3,%zmm3
	vpshufb	%zmm16,%zmm4,%zmm4
	vpshufb	%zmm16,%zmm5,%zmm5
	vpxorq	%zmm2,%zmm11,%zmm11
	vmovdqu64	112(%rsi),%zmm15
	vpclmulqdq	$0x11,%zmm15,%zmm11,%zmm1
	vpclmulqdq	$0x00,%zmm15,%zmm11,%zmm6
	vpclmulqdq	$0x01,%zmm15,%zmm11,%zmm7
	vpclmulqdq	$0x10,%zmm15,%zmm11,%zmm8
	vmovdqu64	176(%rsi),%zmm15
	vpclmulqdq	$0x11,%zmm15,%zmm3,%zmm9
	vpclmulqdq	$0x00,%zmm15,%zmm3,%zmm10
	vpclmulqdq	$0x01,%zmm15,%zmm3,%zmm12
	vpclmulqdq	$0x10,%zmm15,%zmm3,%zmm13
	vmovdqu64	240(%rsi),%zmm15
	vpclmulqdq	$0x11,%zmm15,%zmm4,%zmm11
	vpclmulqdq	$0x00,%zmm15,%zmm4,%zmm3
	vpternlogq	$0x96,%zmm1,%zmm11,%zmm9
	vpternlogq	$0x96,%zmm6,%zmm3,%zmm10
	vpclmulqdq	$0x01,%zmm15,%zmm4,%zmm11
	vpclmulqdq	$0x10,%zmm15,%zmm4,%zmm3
	vpternlogq	$0x96,%zmm7,%zmm11,%zmm12
	vpternlogq	$0x96,%zmm8,%zmm3,%zmm13
	vmovdqu64	304(%rsi),%ymm15
	vinserti64x2	$2,336(%rsi),%zmm15,%zmm15
	vpclmulqdq	$0x01,%zmm15,%zmm5,%zmm7
	vpclmulqdq	$0x10,%zmm15,%zmm5,%zmm8
	vpclmulqdq	$0x11,%zmm15,%zmm5,%zmm1
	vpclmulqdq	$0x00,%zmm15,%zmm5,%zmm6

	vpxorq	%zmm12,%zmm7,%zmm7
	vpxorq	%zmm13,%zmm8,%zmm8
	vpxorq	%zmm9,%zmm1,%zmm1
	vpxorq	%zmm10,%zmm6,%zmm6

	vpxorq	%zmm8,%zmm7,%zmm7
	vpsrldq	$8,%zmm7,%zmm12
	vpslldq	$8,%zmm7,%zmm13
	vpxorq	%zmm12,%zmm1,%zmm1
	vpxorq	%zmm13,%zmm6,%zmm6
	vextracti64x4	$1,%zmm1,%ymm12
	vpxorq	%ymm12,%ymm1,%ymm1
	vextracti32x4	$1,%ymm1,%xmm12
	vpxorq	%xmm12,%xmm1,%xmm1
	vextracti64x4	$1,%zmm6,%ymm13
	vpxorq	%ymm13,%ymm6,%ymm6
	vextracti32x4	$1,%ymm6,%xmm13
	vpxorq	%xmm13,%xmm6,%xmm6
	vmovdqa64	POLY2(%rip),%xmm15


	vpclmulqdq	$0x01,%xmm6,%xmm15,%xmm7
	vpslldq	$8,%xmm7,%xmm7
	vpxorq	%xmm7,%xmm6,%xmm7


	vpclmulqdq	$0x00,%xmm7,%xmm15,%xmm8
	vpsrldq	$4,%xmm8,%xmm8
	vpclmulqdq	$0x10,%xmm7,%xmm15,%xmm2
	vpslldq	$4,%xmm2,%xmm2
	vpternlogq	$0x96,%xmm1,%xmm8,%xmm2

	jmp	.L_CALC_AAD_done_qAxEfwhyiBvGaCE
.L_AAD_blocks_14_qAxEfwhyiBvGaCE:
	subq	$1536,%r12
	kmovq	(%r12),%k1
	vmovdqu8	0(%r10),%zmm11
	vmovdqu8	64(%r10),%zmm3
	vmovdqu8	128(%r10),%zmm4
	vmovdqu8	192(%r10),%ymm5{%k1}{z}
	vpshufb	%zmm16,%zmm11,%zmm11
	vpshufb	%zmm16,%zmm3,%zmm3
	vpshufb	%zmm16,%zmm4,%zmm4
	vpshufb	%ymm16,%ymm5,%ymm5
	vpxorq	%zmm2,%zmm11,%zmm11
	vmovdqu64	128(%rsi),%zmm15
	vpclmulqdq	$0x11,%zmm15,%zmm11,%zmm1
	vpclmulqdq	$0x00,%zmm15,%zmm11,%zmm6
	vpclmulqdq	$0x01,%zmm15,%zmm11,%zmm7
	vpclmulqdq	$0x10,%zmm15,%zmm11,%zmm8
	vmovdqu64	192(%rsi),%zmm15
	vpclmulqdq	$0x11,%zmm15,%zmm3,%zmm9
	vpclmulqdq	$0x00,%zmm15,%zmm3,%zmm10
	vpclmulqdq	$0x01,%zmm15,%zmm3,%zmm12
	vpclmulqdq	$0x10,%zmm15,%zmm3,%zmm13
	vmovdqu64	256(%rsi),%zmm15
	vpclmulqdq	$0x11,%zmm15,%zmm4,%zmm11
	vpclmulqdq	$0x00,%zmm15,%zmm4,%zmm3
	vpternlogq	$0x96,%zmm1,%zmm11,%zmm9
	vpternlogq	$0x96,%zmm6,%zmm3,%zmm10
	vpclmulqdq	$0x01,%zmm15,%zmm4,%zmm11
	vpclmulqdq	$0x10,%zmm15,%zmm4,%zmm3
	vpternlogq	$0x96,%zmm7,%zmm11,%zmm12
	vpternlogq	$0x96,%zmm8,%zmm3,%zmm13
	vmovdqu64	320(%rsi),%ymm15
	vpclmulqdq	$0x01,%ymm15,%ymm5,%ymm7
	vpclmulqdq	$0x10,%ymm15,%ymm5,%ymm8
	vpclmulqdq	$0x11,%ymm15,%ymm5,%ymm1
	vpclmulqdq	$0x00,%ymm15,%ymm5,%ymm6

	vpxorq	%zmm12,%zmm7,%zmm7
	vpxorq	%zmm13,%zmm8,%zmm8
	vpxorq	%zmm9,%zmm1,%zmm1
	vpxorq	%zmm10,%zmm6,%zmm6

	vpxorq	%zmm8,%zmm7,%zmm7
	vpsrldq	$8,%zmm7,%zmm12
	vpslldq	$8,%zmm7,%zmm13
	vpxorq	%zmm12,%zmm1,%zmm1
	vpxorq	%zmm13,%zmm6,%zmm6
	vextracti64x4	$1,%zmm1,%ymm12
	vpxorq	%ymm12,%ymm1,%ymm1
	vextracti32x4	$1,%ymm1,%xmm12
	vpxorq	%xmm12,%xmm1,%xmm1
	vextracti64x4	$1,%zmm6,%ymm13
	vpxorq	%ymm13,%ymm6,%ymm6
	vextracti32x4	$1,%ymm6,%xmm13
	vpxorq	%xmm13,%xmm6,%xmm6
	vmovdqa64	POLY2(%rip),%xmm15


	vpclmulqdq	$0x01,%xmm6,%xmm15,%xmm7
	vpslldq	$8,%xmm7,%xmm7
	vpxorq	%xmm7,%xmm6,%xmm7


	vpclmulqdq	$0x00,%xmm7,%xmm15,%xmm8
	vpsrldq	$4,%xmm8,%xmm8
	vpclmulqdq	$0x10,%xmm7,%xmm15,%xmm2
	vpslldq	$4,%xmm2,%xmm2
	vpternlogq	$0x96,%xmm1,%xmm8,%xmm2

	jmp	.L_CALC_AAD_done_qAxEfwhyiBvGaCE
.L_AAD_blocks_13_qAxEfwhyiBvGaCE:
	subq	$1536,%r12
	kmovq	(%r12),%k1
	vmovdqu8	0(%r10),%zmm11
	vmovdqu8	64(%r10),%zmm3
	vmovdqu8	128(%r10),%zmm4
	vmovdqu8	192(%r10),%xmm5{%k1}{z}
	vpshufb	%zmm16,%zmm11,%zmm11
	vpshufb	%zmm16,%zmm3,%zmm3
	vpshufb	%zmm16,%zmm4,%zmm4
	vpshufb	%xmm16,%xmm5,%xmm5
	vpxorq	%zmm2,%zmm11,%zmm11
	vmovdqu64	144(%rsi),%zmm15
	vpclmulqdq	$0x11,%zmm15,%zmm11,%zmm1
	vpclmulqdq	$0x00,%zmm15,%zmm11,%zmm6
	vpclmulqdq	$0x01,%zmm15,%zmm11,%zmm7
	vpclmulqdq	$0x10,%zmm15,%zmm11,%zmm8
	vmovdqu64	208(%rsi),%zmm15
	vpclmulqdq	$0x11,%zmm15,%zmm3,%zmm9
	vpclmulqdq	$0x00,%zmm15,%zmm3,%zmm10
	vpclmulqdq	$0x01,%zmm15,%zmm3,%zmm12
	vpclmulqdq	$0x10,%zmm15,%zmm3,%zmm13
	vmovdqu64	272(%rsi),%zmm15
	vpclmulqdq	$0x11,%zmm15,%zmm4,%zmm11
	vpclmulqdq	$0x00,%zmm15,%zmm4,%zmm3
	vpternlogq	$0x96,%zmm1,%zmm11,%zmm9
	vpternlogq	$0x96,%zmm6,%zmm3,%zmm10
	vpclmulqdq	$0x01,%zmm15,%zmm4,%zmm11
	vpclmulqdq	$0x10,%zmm15,%zmm4,%zmm3
	vpternlogq	$0x96,%zmm7,%zmm11,%zmm12
	vpternlogq	$0x96,%zmm8,%zmm3,%zmm13
	vmovdqu64	336(%rsi),%xmm15
	vpclmulqdq	$0x01,%xmm15,%xmm5,%xmm7
	vpclmulqdq	$0x10,%xmm15,%xmm5,%xmm8
	vpclmulqdq	$0x11,%xmm15,%xmm5,%xmm1
	vpclmulqdq	$0x00,%xmm15,%xmm5,%xmm6

	vpxorq	%zmm12,%zmm7,%zmm7
	vpxorq	%zmm13,%zmm8,%zmm8
	vpxorq	%zmm9,%zmm1,%zmm1
	vpxorq	%zmm10,%zmm6,%zmm6

	vpxorq	%zmm8,%zmm7,%zmm7
	vpsrldq	$8,%zmm7,%zmm12
	vpslldq	$8,%zmm7,%zmm13
	vpxorq	%zmm12,%zmm1,%zmm1
	vpxorq	%zmm13,%zmm6,%zmm6
	vextracti64x4	$1,%zmm1,%ymm12
	vpxorq	%ymm12,%ymm1,%ymm1
	vextracti32x4	$1,%ymm1,%xmm12
	vpxorq	%xmm12,%xmm1,%xmm1
	vextracti64x4	$1,%zmm6,%ymm13
	vpxorq	%ymm13,%ymm6,%ymm6
	vextracti32x4	$1,%ymm6,%xmm13
	vpxorq	%xmm13,%xmm6,%xmm6
	vmovdqa64	POLY2(%rip),%xmm15


	vpclmulqdq	$0x01,%xmm6,%xmm15,%xmm7
	vpslldq	$8,%xmm7,%xmm7
	vpxorq	%xmm7,%xmm6,%xmm7


	vpclmulqdq	$0x00,%xmm7,%xmm15,%xmm8
	vpsrldq	$4,%xmm8,%xmm8
	vpclmulqdq	$0x10,%xmm7,%xmm15,%xmm2
	vpslldq	$4,%xmm2,%xmm2
	vpternlogq	$0x96,%xmm1,%xmm8,%xmm2

	jmp	.L_CALC_AAD_done_qAxEfwhyiBvGaCE
.L_AAD_blocks_12_qAxEfwhyiBvGaCE:
	subq	$1024,%r12
	kmovq	(%r12),%k1
	vmovdqu8	0(%r10),%zmm11
	vmovdqu8	64(%r10),%zmm3
	vmovdqu8	128(%r10),%zmm4{%k1}{z}
	vpshufb	%zmm16,%zmm11,%zmm11
	vpshufb	%zmm16,%zmm3,%zmm3
	vpshufb	%zmm16,%zmm4,%zmm4
	vpxorq	%zmm2,%zmm11,%zmm11
	vmovdqu64	160(%rsi),%zmm15
	vpclmulqdq	$0x11,%zmm15,%zmm11,%zmm1
	vpclmulqdq	$0x00,%zmm15,%zmm11,%zmm6
	vpclmulqdq	$0x01,%zmm15,%zmm11,%zmm7
	vpclmulqdq	$0x10,%zmm15,%zmm11,%zmm8
	vmovdqu64	224(%rsi),%zmm15
	vpclmulqdq	$0x11,%zmm15,%zmm3,%zmm9
	vpclmulqdq	$0x00,%zmm15,%zmm3,%zmm10
	vpclmulqdq	$0x01,%zmm15,%zmm3,%zmm12
	vpclmulqdq	$0x10,%zmm15,%zmm3,%zmm13
	vmovdqu64	288(%rsi),%zmm15
	vpclmulqdq	$0x11,%zmm15,%zmm4,%zmm11
	vpclmulqdq	$0x00,%zmm15,%zmm4,%zmm3
	vpternlogq	$0x96,%zmm1,%zmm11,%zmm9
	vpternlogq	$0x96,%zmm6,%zmm3,%zmm10
	vpclmulqdq	$0x01,%zmm15,%zmm4,%zmm11
	vpclmulqdq	$0x10,%zmm15,%zmm4,%zmm3
	vpternlogq	$0x96,%zmm7,%zmm11,%zmm12
	vpternlogq	$0x96,%zmm8,%zmm3,%zmm13

	vpxorq	%zmm13,%zmm12,%zmm12
	vpsrldq	$8,%zmm12,%zmm7
	vpslldq	$8,%zmm12,%zmm8
	vpxorq	%zmm7,%zmm9,%zmm1
	vpxorq	%zmm8,%zmm10,%zmm6
	vextracti64x4	$1,%zmm1,%ymm12
	vpxorq	%ymm12,%ymm1,%ymm1
	vextracti32x4	$1,%ymm1,%xmm12
	vpxorq	%xmm12,%xmm1,%xmm1
	vextracti64x4	$1,%zmm6,%ymm13
	vpxorq	%ymm13,%ymm6,%ymm6
	vextracti32x4	$1,%ymm6,%xmm13
	vpxorq	%xmm13,%xmm6,%xmm6
	vmovdqa64	POLY2(%rip),%xmm15


	vpclmulqdq	$0x01,%xmm6,%xmm15,%xmm7
	vpslldq	$8,%xmm7,%xmm7
	vpxorq	%xmm7,%xmm6,%xmm7


	vpclmulqdq	$0x00,%xmm7,%xmm15,%xmm8
	vpsrldq	$4,%xmm8,%xmm8
	vpclmulqdq	$0x10,%xmm7,%xmm15,%xmm2
	vpslldq	$4,%xmm2,%xmm2
	vpternlogq	$0x96,%xmm1,%xmm8,%xmm2

	jmp	.L_CALC_AAD_done_qAxEfwhyiBvGaCE
.L_AAD_blocks_11_qAxEfwhyiBvGaCE:
	subq	$1024,%r12
	kmovq	(%r12),%k1
	vmovdqu8	0(%r10),%zmm11
	vmovdqu8	64(%r10),%zmm3
	vmovdqu8	128(%r10),%zmm4{%k1}{z}
	vpshufb	%zmm16,%zmm11,%zmm11
	vpshufb	%zmm16,%zmm3,%zmm3
	vpshufb	%zmm16,%zmm4,%zmm4
	vpxorq	%zmm2,%zmm11,%zmm11
	vmovdqu64	176(%rsi),%zmm15
	vpclmulqdq	$0x11,%zmm15,%zmm11,%zmm1
	vpclmulqdq	$0x00,%zmm15,%zmm11,%zmm6
	vpclmulqdq	$0x01,%zmm15,%zmm11,%zmm7
	vpclmulqdq	$0x10,%zmm15,%zmm11,%zmm8
	vmovdqu64	240(%rsi),%zmm15
	vpclmulqdq	$0x11,%zmm15,%zmm3,%zmm9
	vpclmulqdq	$0x00,%zmm15,%zmm3,%zmm10
	vpclmulqdq	$0x01,%zmm15,%zmm3,%zmm12
	vpclmulqdq	$0x10,%zmm15,%zmm3,%zmm13
	vpxorq	%zmm9,%zmm1,%zmm9
	vpxorq	%zmm10,%zmm6,%zmm10
	vpxorq	%zmm12,%zmm7,%zmm12
	vpxorq	%zmm13,%zmm8,%zmm13
	vmovdqu64	304(%rsi),%ymm15
	vinserti64x2	$2,336(%rsi),%zmm15,%zmm15
	vpclmulqdq	$0x01,%zmm15,%zmm4,%zmm7
	vpclmulqdq	$0x10,%zmm15,%zmm4,%zmm8
	vpclmulqdq	$0x11,%zmm15,%zmm4,%zmm1
	vpclmulqdq	$0x00,%zmm15,%zmm4,%zmm6

	vpxorq	%zmm12,%zmm7,%zmm7
	vpxorq	%zmm13,%zmm8,%zmm8
	vpxorq	%zmm9,%zmm1,%zmm1
	vpxorq	%zmm10,%zmm6,%zmm6

	vpxorq	%zmm8,%zmm7,%zmm7
	vpsrldq	$8,%zmm7,%zmm12
	vpslldq	$8,%zmm7,%zmm13
	vpxorq	%zmm12,%zmm1,%zmm1
	vpxorq	%zmm13,%zmm6,%zmm6
	vextracti64x4	$1,%zmm1,%ymm12
	vpxorq	%ymm12,%ymm1,%ymm1
	vextracti32x4	$1,%ymm1,%xmm12
	vpxorq	%xmm12,%xmm1,%xmm1
	vextracti64x4	$1,%zmm6,%ymm13
	vpxorq	%ymm13,%ymm6,%ymm6
	vextracti32x4	$1,%ymm6,%xmm13
	vpxorq	%xmm13,%xmm6,%xmm6
	vmovdqa64	POLY2(%rip),%xmm15


	vpclmulqdq	$0x01,%xmm6,%xmm15,%xmm7
	vpslldq	$8,%xmm7,%xmm7
	vpxorq	%xmm7,%xmm6,%xmm7


	vpclmulqdq	$0x00,%xmm7,%xmm15,%xmm8
	vpsrldq	$4,%xmm8,%xmm8
	vpclmulqdq	$0x10,%xmm7,%xmm15,%xmm2
	vpslldq	$4,%xmm2,%xmm2
	vpternlogq	$0x96,%xmm1,%xmm8,%xmm2

	jmp	.L_CALC_AAD_done_qAxEfwhyiBvGaCE
.L_AAD_blocks_10_qAxEfwhyiBvGaCE:
	subq	$1024,%r12
	kmovq	(%r12),%k1
	vmovdqu8	0(%r10),%zmm11
	vmovdqu8	64(%r10),%zmm3
	vmovdqu8	128(%r10),%ymm4{%k1}{z}
	vpshufb	%zmm16,%zmm11,%zmm11
	vpshufb	%zmm16,%zmm3,%zmm3
	vpshufb	%ymm16,%ymm4,%ymm4
	vpxorq	%zmm2,%zmm11,%zmm11
	vmovdqu64	192(%rsi),%zmm15
	vpclmulqdq	$0x11,%zmm15,%zmm11,%zmm1
	vpclmulqdq	$0x00,%zmm15,%zmm11,%zmm6
	vpclmulqdq	$0x01,%zmm15,%zmm11,%zmm7
	vpclmulqdq	$0x10,%zmm15,%zmm11,%zmm8
	vmovdqu64	256(%rsi),%zmm15
	vpclmulqdq	$0x11,%zmm15,%zmm3,%zmm9
	vpclmulqdq	$0x00,%zmm15,%zmm3,%zmm10
	vpclmulqdq	$0x01,%zmm15,%zmm3,%zmm12
	vpclmulqdq	$0x10,%zmm15,%zmm3,%zmm13
	vpxorq	%zmm9,%zmm1,%zmm9
	vpxorq	%zmm10,%zmm6,%zmm10
	vpxorq	%zmm12,%zmm7,%zmm12
	vpxorq	%zmm13,%zmm8,%zmm13
	vmovdqu64	320(%rsi),%ymm15
	vpclmulqdq	$0x01,%ymm15,%ymm4,%ymm7
	vpclmulqdq	$0x10,%ymm15,%ymm4,%ymm8
	vpclmulqdq	$0x11,%ymm15,%ymm4,%ymm1
	vpclmulqdq	$0x00,%ymm15,%ymm4,%ymm6

	vpxorq	%zmm12,%zmm7,%zmm7
	vpxorq	%zmm13,%zmm8,%zmm8
	vpxorq	%zmm9,%zmm1,%zmm1
	vpxorq	%zmm10,%zmm6,%zmm6

	vpxorq	%zmm8,%zmm7,%zmm7
	vpsrldq	$8,%zmm7,%zmm12
	vpslldq	$8,%zmm7,%zmm13
	vpxorq	%zmm12,%zmm1,%zmm1
	vpxorq	%zmm13,%zmm6,%zmm6
	vextracti64x4	$1,%zmm1,%ymm12
	vpxorq	%ymm12,%ymm1,%ymm1
	vextracti32x4	$1,%ymm1,%xmm12
	vpxorq	%xmm12,%xmm1,%xmm1
	vextracti64x4	$1,%zmm6,%ymm13
	vpxorq	%ymm13,%ymm6,%ymm6
	vextracti32x4	$1,%ymm6,%xmm13
	vpxorq	%xmm13,%xmm6,%xmm6
	vmovdqa64	POLY2(%rip),%xmm15


	vpclmulqdq	$0x01,%xmm6,%xmm15,%xmm7
	vpslldq	$8,%xmm7,%xmm7
	vpxorq	%xmm7,%xmm6,%xmm7


	vpclmulqdq	$0x00,%xmm7,%xmm15,%xmm8
	vpsrldq	$4,%xmm8,%xmm8
	vpclmulqdq	$0x10,%xmm7,%xmm15,%xmm2
	vpslldq	$4,%xmm2,%xmm2
	vpternlogq	$0x96,%xmm1,%xmm8,%xmm2

	jmp	.L_CALC_AAD_done_qAxEfwhyiBvGaCE
.L_AAD_blocks_9_qAxEfwhyiBvGaCE:
	subq	$1024,%r12
	kmovq	(%r12),%k1
	vmovdqu8	0(%r10),%zmm11
	vmovdqu8	64(%r10),%zmm3
	vmovdqu8	128(%r10),%xmm4{%k1}{z}
	vpshufb	%zmm16,%zmm11,%zmm11
	vpshufb	%zmm16,%zmm3,%zmm3
	vpshufb	%xmm16,%xmm4,%xmm4
	vpxorq	%zmm2,%zmm11,%zmm11
	vmovdqu64	208(%rsi),%zmm15
	vpclmulqdq	$0x11,%zmm15,%zmm11,%zmm1
	vpclmulqdq	$0x00,%zmm15,%zmm11,%zmm6
	vpclmulqdq	$0x01,%zmm15,%zmm11,%zmm7
	vpclmulqdq	$0x10,%zmm15,%zmm11,%zmm8
	vmovdqu64	272(%rsi),%zmm15
	vpclmulqdq	$0x11,%zmm15,%zmm3,%zmm9
	vpclmulqdq	$0x00,%zmm15,%zmm3,%zmm10
	vpclmulqdq	$0x01,%zmm15,%zmm3,%zmm12
	vpclmulqdq	$0x10,%zmm15,%zmm3,%zmm13
	vpxorq	%zmm9,%zmm1,%zmm9
	vpxorq	%zmm10,%zmm6,%zmm10
	vpxorq	%zmm12,%zmm7,%zmm12
	vpxorq	%zmm13,%zmm8,%zmm13
	vmovdqu64	336(%rsi),%xmm15
	vpclmulqdq	$0x01,%xmm15,%xmm4,%xmm7
	vpclmulqdq	$0x10,%xmm15,%xmm4,%xmm8
	vpclmulqdq	$0x11,%xmm15,%xmm4,%xmm1
	vpclmulqdq	$0x00,%xmm15,%xmm4,%xmm6

	vpxorq	%zmm12,%zmm7,%zmm7
	vpxorq	%zmm13,%zmm8,%zmm8
	vpxorq	%zmm9,%zmm1,%zmm1
	vpxorq	%zmm10,%zmm6,%zmm6

	vpxorq	%zmm8,%zmm7,%zmm7
	vpsrldq	$8,%zmm7,%zmm12
	vpslldq	$8,%zmm7,%zmm13
	vpxorq	%zmm12,%zmm1,%zmm1
	vpxorq	%zmm13,%zmm6,%zmm6
	vextracti64x4	$1,%zmm1,%ymm12
	vpxorq	%ymm12,%ymm1,%ymm1
	vextracti32x4	$1,%ymm1,%xmm12
	vpxorq	%xmm12,%xmm1,%xmm1
	vextracti64x4	$1,%zmm6,%ymm13
	vpxorq	%ymm13,%ymm6,%ymm6
	vextracti32x4	$1,%ymm6,%xmm13
	vpxorq	%xmm13,%xmm6,%xmm6
	vmovdqa64	POLY2(%rip),%xmm15


	vpclmulqdq	$0x01,%xmm6,%xmm15,%xmm7
	vpslldq	$8,%xmm7,%xmm7
	vpxorq	%xmm7,%xmm6,%xmm7


	vpclmulqdq	$0x00,%xmm7,%xmm15,%xmm8
	vpsrldq	$4,%xmm8,%xmm8
	vpclmulqdq	$0x10,%xmm7,%xmm15,%xmm2
	vpslldq	$4,%xmm2,%xmm2
	vpternlogq	$0x96,%xmm1,%xmm8,%xmm2

	jmp	.L_CALC_AAD_done_qAxEfwhyiBvGaCE
.L_AAD_blocks_8_qAxEfwhyiBvGaCE:
	subq	$512,%r12
	kmovq	(%r12),%k1
	vmovdqu8	0(%r10),%zmm11
	vmovdqu8	64(%r10),%zmm3{%k1}{z}
	vpshufb	%zmm16,%zmm11,%zmm11
	vpshufb	%zmm16,%zmm3,%zmm3
	vpxorq	%zmm2,%zmm11,%zmm11
	vmovdqu64	224(%rsi),%zmm15
	vpclmulqdq	$0x11,%zmm15,%zmm11,%zmm1
	vpclmulqdq	$0x00,%zmm15,%zmm11,%zmm6
	vpclmulqdq	$0x01,%zmm15,%zmm11,%zmm7
	vpclmulqdq	$0x10,%zmm15,%zmm11,%zmm8
	vmovdqu64	288(%rsi),%zmm15
	vpclmulqdq	$0x11,%zmm15,%zmm3,%zmm9
	vpclmulqdq	$0x00,%zmm15,%zmm3,%zmm10
	vpclmulqdq	$0x01,%zmm15,%zmm3,%zmm12
	vpclmulqdq	$0x10,%zmm15,%zmm3,%zmm13
	vpxorq	%zmm9,%zmm1,%zmm9
	vpxorq	%zmm10,%zmm6,%zmm10
	vpxorq	%zmm12,%zmm7,%zmm12
	vpxorq	%zmm13,%zmm8,%zmm13

	vpxorq	%zmm13,%zmm12,%zmm12
	vpsrldq	$8,%zmm12,%zmm7
	vpslldq	$8,%zmm12,%zmm8
	vpxorq	%zmm7,%zmm9,%zmm1
	vpxorq	%zmm8,%zmm10,%zmm6
	vextracti64x4	$1,%zmm1,%ymm12
	vpxorq	%ymm12,%ymm1,%ymm1
	vextracti32x4	$1,%ymm1,%xmm12
	vpxorq	%xmm12,%xmm1,%xmm1
	vextracti64x4	$1,%zmm6,%ymm13
	vpxorq	%ymm13,%ymm6,%ymm6
	vextracti32x4	$1,%ymm6,%xmm13
	vpxorq	%xmm13,%xmm6,%xmm6
	vmovdqa64	POLY2(%rip),%xmm15


	vpclmulqdq	$0x01,%xmm6,%xmm15,%xmm7
	vpslldq	$8,%xmm7,%xmm7
	vpxorq	%xmm7,%xmm6,%xmm7


	vpclmulqdq	$0x00,%xmm7,%xmm15,%xmm8
	vpsrldq	$4,%xmm8,%xmm8
	vpclmulqdq	$0x10,%xmm7,%xmm15,%xmm2
	vpslldq	$4,%xmm2,%xmm2
	vpternlogq	$0x96,%xmm1,%xmm8,%xmm2

	jmp	.L_CALC_AAD_done_qAxEfwhyiBvGaCE
.L_AAD_blocks_7_qAxEfwhyiBvGaCE:
	subq	$512,%r12
	kmovq	(%r12),%k1
	vmovdqu8	0(%r10),%zmm11
	vmovdqu8	64(%r10),%zmm3{%k1}{z}
	vpshufb	%zmm16,%zmm11,%zmm11
	vpshufb	%zmm16,%zmm3,%zmm3
	vpxorq	%zmm2,%zmm11,%zmm11
	vmovdqu64	240(%rsi),%zmm15
	vpclmulqdq	$0x11,%zmm15,%zmm11,%zmm9
	vpclmulqdq	$0x00,%zmm15,%zmm11,%zmm10
	vpclmulqdq	$0x01,%zmm15,%zmm11,%zmm12
	vpclmulqdq	$0x10,%zmm15,%zmm11,%zmm13
	vmovdqu64	304(%rsi),%ymm15
	vinserti64x2	$2,336(%rsi),%zmm15,%zmm15
	vpclmulqdq	$0x01,%zmm15,%zmm3,%zmm7
	vpclmulqdq	$0x10,%zmm15,%zmm3,%zmm8
	vpclmulqdq	$0x11,%zmm15,%zmm3,%zmm1
	vpclmulqdq	$0x00,%zmm15,%zmm3,%zmm6

	vpxorq	%zmm12,%zmm7,%zmm7
	vpxorq	%zmm13,%zmm8,%zmm8
	vpxorq	%zmm9,%zmm1,%zmm1
	vpxorq	%zmm10,%zmm6,%zmm6

	vpxorq	%zmm8,%zmm7,%zmm7
	vpsrldq	$8,%zmm7,%zmm12
	vpslldq	$8,%zmm7,%zmm13
	vpxorq	%zmm12,%zmm1,%zmm1
	vpxorq	%zmm13,%zmm6,%zmm6
	vextracti64x4	$1,%zmm1,%ymm12
	vpxorq	%ymm12,%ymm1,%ymm1
	vextracti32x4	$1,%ymm1,%xmm12
	vpxorq	%xmm12,%xmm1,%xmm1
	vextracti64x4	$1,%zmm6,%ymm13
	vpxorq	%ymm13,%ymm6,%ymm6
	vextracti32x4	$1,%ymm6,%xmm13
	vpxorq	%xmm13,%xmm6,%xmm6
	vmovdqa64	POLY2(%rip),%xmm15


	vpclmulqdq	$0x01,%xmm6,%xmm15,%xmm7
	vpslldq	$8,%xmm7,%xmm7
	vpxorq	%xmm7,%xmm6,%xmm7


	vpclmulqdq	$0x00,%xmm7,%xmm15,%xmm8
	vpsrldq	$4,%xmm8,%xmm8
	vpclmulqdq	$0x10,%xmm7,%xmm15,%xmm2
	vpslldq	$4,%xmm2,%xmm2
	vpternlogq	$0x96,%xmm1,%xmm8,%xmm2

	jmp	.L_CALC_AAD_done_qAxEfwhyiBvGaCE
.L_AAD_blocks_6_qAxEfwhyiBvGaCE:
	subq	$512,%r12
	kmovq	(%r12),%k1
	vmovdqu8	0(%r10),%zmm11
	vmovdqu8	64(%r10),%ymm3{%k1}{z}
	vpshufb	%zmm16,%zmm11,%zmm11
	vpshufb	%ymm16,%ymm3,%ymm3
	vpxorq	%zmm2,%zmm11,%zmm11
	vmovdqu64	256(%rsi),%zmm15
	vpclmulqdq	$0x11,%zmm15,%zmm11,%zmm9
	vpclmulqdq	$0x00,%zmm15,%zmm11,%zmm10
	vpclmulqdq	$0x01,%zmm15,%zmm11,%zmm12
	vpclmulqdq	$0x10,%zmm15,%zmm11,%zmm13
	vmovdqu64	320(%rsi),%ymm15
	vpclmulqdq	$0x01,%ymm15,%ymm3,%ymm7
	vpclmulqdq	$0x10,%ymm15,%ymm3,%ymm8
	vpclmulqdq	$0x11,%ymm15,%ymm3,%ymm1
	vpclmulqdq	$0x00,%ymm15,%ymm3,%ymm6

	vpxorq	%zmm12,%zmm7,%zmm7
	vpxorq	%zmm13,%zmm8,%zmm8
	vpxorq	%zmm9,%zmm1,%zmm1
	vpxorq	%zmm10,%zmm6,%zmm6

	vpxorq	%zmm8,%zmm7,%zmm7
	vpsrldq	$8,%zmm7,%zmm12
	vpslldq	$8,%zmm7,%zmm13
	vpxorq	%zmm12,%zmm1,%zmm1
	vpxorq	%zmm13,%zmm6,%zmm6
	vextracti64x4	$1,%zmm1,%ymm12
	vpxorq	%ymm12,%ymm1,%ymm1
	vextracti32x4	$1,%ymm1,%xmm12
	vpxorq	%xmm12,%xmm1,%xmm1
	vextracti64x4	$1,%zmm6,%ymm13
	vpxorq	%ymm13,%ymm6,%ymm6
	vextracti32x4	$1,%ymm6,%xmm13
	vpxorq	%xmm13,%xmm6,%xmm6
	vmovdqa64	POLY2(%rip),%xmm15


	vpclmulqdq	$0x01,%xmm6,%xmm15,%xmm7
	vpslldq	$8,%xmm7,%xmm7
	vpxorq	%xmm7,%xmm6,%xmm7


	vpclmulqdq	$0x00,%xmm7,%xmm15,%xmm8
	vpsrldq	$4,%xmm8,%xmm8
	vpclmulqdq	$0x10,%xmm7,%xmm15,%xmm2
	vpslldq	$4,%xmm2,%xmm2
	vpternlogq	$0x96,%xmm1,%xmm8,%xmm2

	jmp	.L_CALC_AAD_done_qAxEfwhyiBvGaCE
.L_AAD_blocks_5_qAxEfwhyiBvGaCE:
	subq	$512,%r12
	kmovq	(%r12),%k1
	vmovdqu8	0(%r10),%zmm11
	vmovdqu8	64(%r10),%xmm3{%k1}{z}
	vpshufb	%zmm16,%zmm11,%zmm11
	vpshufb	%xmm16,%xmm3,%xmm3
	vpxorq	%zmm2,%zmm11,%zmm11
	vmovdqu64	272(%rsi),%zmm15
	vpclmulqdq	$0x11,%zmm15,%zmm11,%zmm9
	vpclmulqdq	$0x00,%zmm15,%zmm11,%zmm10
	vpclmulqdq	$0x01,%zmm15,%zmm11,%zmm12
	vpclmulqdq	$0x10,%zmm15,%zmm11,%zmm13
	vmovdqu64	336(%rsi),%xmm15
	vpclmulqdq	$0x01,%xmm15,%xmm3,%xmm7
	vpclmulqdq	$0x10,%xmm15,%xmm3,%xmm8
	vpclmulqdq	$0x11,%xmm15,%xmm3,%xmm1
	vpclmulqdq	$0x00,%xmm15,%xmm3,%xmm6

	vpxorq	%zmm12,%zmm7,%zmm7
	vpxorq	%zmm13,%zmm8,%zmm8
	vpxorq	%zmm9,%zmm1,%zmm1
	vpxorq	%zmm10,%zmm6,%zmm6

	vpxorq	%zmm8,%zmm7,%zmm7
	vpsrldq	$8,%zmm7,%zmm12
	vpslldq	$8,%zmm7,%zmm13
	vpxorq	%zmm12,%zmm1,%zmm1
	vpxorq	%zmm13,%zmm6,%zmm6
	vextracti64x4	$1,%zmm1,%ymm12
	vpxorq	%ymm12,%ymm1,%ymm1
	vextracti32x4	$1,%ymm1,%xmm12
	vpxorq	%xmm12,%xmm1,%xmm1
	vextracti64x4	$1,%zmm6,%ymm13
	vpxorq	%ymm13,%ymm6,%ymm6
	vextracti32x4	$1,%ymm6,%xmm13
	vpxorq	%xmm13,%xmm6,%xmm6
	vmovdqa64	POLY2(%rip),%xmm15


	vpclmulqdq	$0x01,%xmm6,%xmm15,%xmm7
	vpslldq	$8,%xmm7,%xmm7
	vpxorq	%xmm7,%xmm6,%xmm7


	vpclmulqdq	$0x00,%xmm7,%xmm15,%xmm8
	vpsrldq	$4,%xmm8,%xmm8
	vpclmulqdq	$0x10,%xmm7,%xmm15,%xmm2
	vpslldq	$4,%xmm2,%xmm2
	vpternlogq	$0x96,%xmm1,%xmm8,%xmm2

	jmp	.L_CALC_AAD_done_qAxEfwhyiBvGaCE
.L_AAD_blocks_4_qAxEfwhyiBvGaCE:
	kmovq	(%r12),%k1
	vmovdqu8	0(%r10),%zmm11{%k1}{z}
	vpshufb	%zmm16,%zmm11,%zmm11
	vpxorq	%zmm2,%zmm11,%zmm11
	vmovdqu64	288(%rsi),%zmm15
	vpclmulqdq	$0x11,%zmm15,%zmm11,%zmm9
	vpclmulqdq	$0x00,%zmm15,%zmm11,%zmm10
	vpclmulqdq	$0x01,%zmm15,%zmm11,%zmm12
	vpclmulqdq	$0x10,%zmm15,%zmm11,%zmm13

	vpxorq	%zmm13,%zmm12,%zmm12
	vpsrldq	$8,%zmm12,%zmm7
	vpslldq	$8,%zmm12,%zmm8
	vpxorq	%zmm7,%zmm9,%zmm1
	vpxorq	%zmm8,%zmm10,%zmm6
	vextracti64x4	$1,%zmm1,%ymm12
	vpxorq	%ymm12,%ymm1,%ymm1
	vextracti32x4	$1,%ymm1,%xmm12
	vpxorq	%xmm12,%xmm1,%xmm1
	vextracti64x4	$1,%zmm6,%ymm13
	vpxorq	%ymm13,%ymm6,%ymm6
	vextracti32x4	$1,%ymm6,%xmm13
	vpxorq	%xmm13,%xmm6,%xmm6
	vmovdqa64	POLY2(%rip),%xmm15


	vpclmulqdq	$0x01,%xmm6,%xmm15,%xmm7
	vpslldq	$8,%xmm7,%xmm7
	vpxorq	%xmm7,%xmm6,%xmm7


	vpclmulqdq	$0x00,%xmm7,%xmm15,%xmm8
	vpsrldq	$4,%xmm8,%xmm8
	vpclmulqdq	$0x10,%xmm7,%xmm15,%xmm2
	vpslldq	$4,%xmm2,%xmm2
	vpternlogq	$0x96,%xmm1,%xmm8,%xmm2

	jmp	.L_CALC_AAD_done_qAxEfwhyiBvGaCE
.L_AAD_blocks_3_qAxEfwhyiBvGaCE:
	kmovq	(%r12),%k1
	vmovdqu8	0(%r10),%zmm11{%k1}{z}
	vpshufb	%zmm16,%zmm11,%zmm11
	vpxorq	%zmm2,%zmm11,%zmm11
	vmovdqu64	304(%rsi),%ymm15
	vinserti64x2	$2,336(%rsi),%zmm15,%zmm15
	vpclmulqdq	$0x01,%zmm15,%zmm11,%zmm7
	vpclmulqdq	$0x10,%zmm15,%zmm11,%zmm8
	vpclmulqdq	$0x11,%zmm15,%zmm11,%zmm1
	vpclmulqdq	$0x00,%zmm15,%zmm11,%zmm6

	vpxorq	%zmm8,%zmm7,%zmm7
	vpsrldq	$8,%zmm7,%zmm12
	vpslldq	$8,%zmm7,%zmm13
	vpxorq	%zmm12,%zmm1,%zmm1
	vpxorq	%zmm13,%zmm6,%zmm6
	vextracti64x4	$1,%zmm1,%ymm12
	vpxorq	%ymm12,%ymm1,%ymm1
	vextracti32x4	$1,%ymm1,%xmm12
	vpxorq	%xmm12,%xmm1,%xmm1
	vextracti64x4	$1,%zmm6,%ymm13
	vpxorq	%ymm13,%ymm6,%ymm6
	vextracti32x4	$1,%ymm6,%xmm13
	vpxorq	%xmm13,%xmm6,%xmm6
	vmovdqa64	POLY2(%rip),%xmm15


	vpclmulqdq	$0x01,%xmm6,%xmm15,%xmm7
	vpslldq	$8,%xmm7,%xmm7
	vpxorq	%xmm7,%xmm6,%xmm7


	vpclmulqdq	$0x00,%xmm7,%xmm15,%xmm8
	vpsrldq	$4,%xmm8,%xmm8
	vpclmulqdq	$0x10,%xmm7,%xmm15,%xmm2
	vpslldq	$4,%xmm2,%xmm2
	vpternlogq	$0x96,%xmm1,%xmm8,%xmm2

	jmp	.L_CALC_AAD_done_qAxEfwhyiBvGaCE
.L_AAD_blocks_2_qAxEfwhyiBvGaCE:
	kmovq	(%r12),%k1
	vmovdqu8	0(%r10),%ymm11{%k1}{z}
	vpshufb	%ymm16,%ymm11,%ymm11
	vpxorq	%zmm2,%zmm11,%zmm11
	vmovdqu64	320(%rsi),%ymm15
	vpclmulqdq	$0x01,%ymm15,%ymm11,%ymm7
	vpclmulqdq	$0x10,%ymm15,%ymm11,%ymm8
	vpclmulqdq	$0x11,%ymm15,%ymm11,%ymm1
	vpclmulqdq	$0x00,%ymm15,%ymm11,%ymm6

	vpxorq	%zmm8,%zmm7,%zmm7
	vpsrldq	$8,%zmm7,%zmm12
	vpslldq	$8,%zmm7,%zmm13
	vpxorq	%zmm12,%zmm1,%zmm1
	vpxorq	%zmm13,%zmm6,%zmm6
	vextracti64x4	$1,%zmm1,%ymm12
	vpxorq	%ymm12,%ymm1,%ymm1
	vextracti32x4	$1,%ymm1,%xmm12
	vpxorq	%xmm12,%xmm1,%xmm1
	vextracti64x4	$1,%zmm6,%ymm13
	vpxorq	%ymm13,%ymm6,%ymm6
	vextracti32x4	$1,%ymm6,%xmm13
	vpxorq	%xmm13,%xmm6,%xmm6
	vmovdqa64	POLY2(%rip),%xmm15


	vpclmulqdq	$0x01,%xmm6,%xmm15,%xmm7
	vpslldq	$8,%xmm7,%xmm7
	vpxorq	%xmm7,%xmm6,%xmm7


	vpclmulqdq	$0x00,%xmm7,%xmm15,%xmm8
	vpsrldq	$4,%xmm8,%xmm8
	vpclmulqdq	$0x10,%xmm7,%xmm15,%xmm2
	vpslldq	$4,%xmm2,%xmm2
	vpternlogq	$0x96,%xmm1,%xmm8,%xmm2

	jmp	.L_CALC_AAD_done_qAxEfwhyiBvGaCE
.L_AAD_blocks_1_qAxEfwhyiBvGaCE:
	kmovq	(%r12),%k1
	vmovdqu8	0(%r10),%xmm11{%k1}{z}
	vpshufb	%xmm16,%xmm11,%xmm11
	vpxorq	%zmm2,%zmm11,%zmm11
	vmovdqu64	336(%rsi),%xmm15
	vpclmulqdq	$0x01,%xmm15,%xmm11,%xmm7
	vpclmulqdq	$0x10,%xmm15,%xmm11,%xmm8
	vpclmulqdq	$0x11,%xmm15,%xmm11,%xmm1
	vpclmulqdq	$0x00,%xmm15,%xmm11,%xmm6

	vpxorq	%zmm8,%zmm7,%zmm7
	vpsrldq	$8,%zmm7,%zmm12
	vpslldq	$8,%zmm7,%zmm13
	vpxorq	%zmm12,%zmm1,%zmm1
	vpxorq	%zmm13,%zmm6,%zmm6
	vextracti64x4	$1,%zmm1,%ymm12
	vpxorq	%ymm12,%ymm1,%ymm1
	vextracti32x4	$1,%ymm1,%xmm12
	vpxorq	%xmm12,%xmm1,%xmm1
	vextracti64x4	$1,%zmm6,%ymm13
	vpxorq	%ymm13,%ymm6,%ymm6
	vextracti32x4	$1,%ymm6,%xmm13
	vpxorq	%xmm13,%xmm6,%xmm6
	vmovdqa64	POLY2(%rip),%xmm15


	vpclmulqdq	$0x01,%xmm6,%xmm15,%xmm7
	vpslldq	$8,%xmm7,%xmm7
	vpxorq	%xmm7,%xmm6,%xmm7


	vpclmulqdq	$0x00,%xmm7,%xmm15,%xmm8
	vpsrldq	$4,%xmm8,%xmm8
	vpclmulqdq	$0x10,%xmm7,%xmm15,%xmm2
	vpslldq	$4,%xmm2,%xmm2
	vpternlogq	$0x96,%xmm1,%xmm8,%xmm2

.L_CALC_AAD_done_qAxEfwhyiBvGaCE:
	movq	%rcx,%r10
	shlq	$3,%r10
	vmovq	%r10,%xmm3


	vpxorq	%xmm2,%xmm3,%xmm2

	vmovdqu64	336(%rsi),%xmm1

	vpclmulqdq	$0x11,%xmm1,%xmm2,%xmm11
	vpclmulqdq	$0x00,%xmm1,%xmm2,%xmm3
	vpclmulqdq	$0x01,%xmm1,%xmm2,%xmm4
	vpclmulqdq	$0x10,%xmm1,%xmm2,%xmm2
	vpxorq	%xmm4,%xmm2,%xmm2

	vpsrldq	$8,%xmm2,%xmm4
	vpslldq	$8,%xmm2,%xmm2
	vpxorq	%xmm4,%xmm11,%xmm11
	vpxorq	%xmm3,%xmm2,%xmm2



	vmovdqu64	POLY2(%rip),%xmm4

	vpclmulqdq	$0x01,%xmm2,%xmm4,%xmm3
	vpslldq	$8,%xmm3,%xmm3
	vpxorq	%xmm3,%xmm2,%xmm2



	vpclmulqdq	$0x00,%xmm2,%xmm4,%xmm3
	vpsrldq	$4,%xmm3,%xmm3
	vpclmulqdq	$0x10,%xmm2,%xmm4,%xmm2
	vpslldq	$4,%xmm2,%xmm2

	vpternlogq	$0x96,%xmm3,%xmm11,%xmm2

	vpshufb	SHUF_MASK(%rip),%xmm2,%xmm2
	jmp	skip_iv_len_12_init_IV
iv_len_12_init_IV:

	vmovdqu8	ONEf(%rip),%xmm2
	movq	%rdx,%r11
	movl	$0x0000000000000fff,%r10d
	kmovq	%r10,%k1
	vmovdqu8	(%r11),%xmm2{%k1}
skip_iv_len_12_init_IV:
	vmovdqu	%xmm2,%xmm1


	movl	240(%rdi),%r10d
	cmpl	$9,%r10d
	je	.Laes_128_oedqjtadsqtwrpx
	cmpl	$11,%r10d
	je	.Laes_192_oedqjtadsqtwrpx
	cmpl	$13,%r10d
	je	.Laes_256_oedqjtadsqtwrpx
	jmp	.Lexit_aes_oedqjtadsqtwrpx
.align	32
.Laes_128_oedqjtadsqtwrpx:
	vpxorq	0(%rdi),%xmm1,%xmm1

	vaesenc	16(%rdi),%xmm1,%xmm1

	vaesenc	32(%rdi),%xmm1,%xmm1

	vaesenc	48(%rdi),%xmm1,%xmm1

	vaesenc	64(%rdi),%xmm1,%xmm1

	vaesenc	80(%rdi),%xmm1,%xmm1

	vaesenc	96(%rdi),%xmm1,%xmm1

	vaesenc	112(%rdi),%xmm1,%xmm1

	vaesenc	128(%rdi),%xmm1,%xmm1

	vaesenc	144(%rdi),%xmm1,%xmm1

	vaesenclast	160(%rdi),%xmm1,%xmm1
	jmp	.Lexit_aes_oedqjtadsqtwrpx
.align	32
.Laes_192_oedqjtadsqtwrpx:
	vpxorq	0(%rdi),%xmm1,%xmm1

	vaesenc	16(%rdi),%xmm1,%xmm1

	vaesenc	32(%rdi),%xmm1,%xmm1

	vaesenc	48(%rdi),%xmm1,%xmm1

	vaesenc	64(%rdi),%xmm1,%xmm1

	vaesenc	80(%rdi),%xmm1,%xmm1

	vaesenc	96(%rdi),%xmm1,%xmm1

	vaesenc	112(%rdi),%xmm1,%xmm1

	vaesenc	128(%rdi),%xmm1,%xmm1

	vaesenc	144(%rdi),%xmm1,%xmm1

	vaesenc	160(%rdi),%xmm1,%xmm1

	vaesenc	176(%rdi),%xmm1,%xmm1

	vaesenclast	192(%rdi),%xmm1,%xmm1
	jmp	.Lexit_aes_oedqjtadsqtwrpx
.align	32
.Laes_256_oedqjtadsqtwrpx:
	vpxorq	0(%rdi),%xmm1,%xmm1

	vaesenc	16(%rdi),%xmm1,%xmm1

	vaesenc	32(%rdi),%xmm1,%xmm1

	vaesenc	48(%rdi),%xmm1,%xmm1

	vaesenc	64(%rdi),%xmm1,%xmm1

	vaesenc	80(%rdi),%xmm1,%xmm1

	vaesenc	96(%rdi),%xmm1,%xmm1

	vaesenc	112(%rdi),%xmm1,%xmm1

	vaesenc	128(%rdi),%xmm1,%xmm1

	vaesenc	144(%rdi),%xmm1,%xmm1

	vaesenc	160(%rdi),%xmm1,%xmm1

	vaesenc	176(%rdi),%xmm1,%xmm1

	vaesenc	192(%rdi),%xmm1,%xmm1

	vaesenc	208(%rdi),%xmm1,%xmm1

	vaesenclast	224(%rdi),%xmm1,%xmm1
	jmp	.Lexit_aes_oedqjtadsqtwrpx
.Lexit_aes_oedqjtadsqtwrpx:

	vmovdqu	%xmm1,32(%rsi)


	vpshufb	SHUF_MASK(%rip),%xmm2,%xmm2
	vmovdqu	%xmm2,0(%rsi)
	cmpq	$256,%rcx
	jbe	.Lskip_hkeys_cleanup_ttzyCwlGgnmhEgu
	vpxor	%xmm0,%xmm0,%xmm0
	vmovdqa64	%zmm0,0(%rsp)
	vmovdqa64	%zmm0,64(%rsp)
	vmovdqa64	%zmm0,128(%rsp)
	vmovdqa64	%zmm0,192(%rsp)
	vmovdqa64	%zmm0,256(%rsp)
	vmovdqa64	%zmm0,320(%rsp)
	vmovdqa64	%zmm0,384(%rsp)
	vmovdqa64	%zmm0,448(%rsp)
	vmovdqa64	%zmm0,512(%rsp)
	vmovdqa64	%zmm0,576(%rsp)
	vmovdqa64	%zmm0,640(%rsp)
	vmovdqa64	%zmm0,704(%rsp)
.Lskip_hkeys_cleanup_ttzyCwlGgnmhEgu:
	vzeroupper
	leaq	(%rbp),%rsp
.cfi_def_cfa_register	%rsp
	popq	%r15
.cfi_adjust_cfa_offset	-8
.cfi_restore	%r15
	popq	%r14
.cfi_adjust_cfa_offset	-8
.cfi_restore	%r14
	popq	%r13
.cfi_adjust_cfa_offset	-8
.cfi_restore	%r13
	popq	%r12
.cfi_adjust_cfa_offset	-8
.cfi_restore	%r12
	popq	%rbp
.cfi_adjust_cfa_offset	-8
.cfi_restore	%rbp
	popq	%rbx
.cfi_adjust_cfa_offset	-8
.cfi_restore	%rbx
.Labort_setiv:
	.byte	0xf3,0xc3
.Lsetiv_seh_end:
.cfi_endproc	
.size	ossl_aes_gcm_setiv_avx512, .-ossl_aes_gcm_setiv_avx512
.globl	ossl_aes_gcm_update_aad_avx512
.type	ossl_aes_gcm_update_aad_avx512,@function
.align	32
ossl_aes_gcm_update_aad_avx512:
.cfi_startproc	
.Lghash_seh_begin:
.byte	243,15,30,250
	pushq	%rbx
.cfi_adjust_cfa_offset	8
.cfi_offset	%rbx,-16
.Lghash_seh_push_rbx:
	pushq	%rbp
.cfi_adjust_cfa_offset	8
.cfi_offset	%rbp,-24
.Lghash_seh_push_rbp:
	pushq	%r12
.cfi_adjust_cfa_offset	8
.cfi_offset	%r12,-32
.Lghash_seh_push_r12:
	pushq	%r13
.cfi_adjust_cfa_offset	8
.cfi_offset	%r13,-40
.Lghash_seh_push_r13:
	pushq	%r14
.cfi_adjust_cfa_offset	8
.cfi_offset	%r14,-48
.Lghash_seh_push_r14:
	pushq	%r15
.cfi_adjust_cfa_offset	8
.cfi_offset	%r15,-56
.Lghash_seh_push_r15:










	leaq	0(%rsp),%rbp
.cfi_def_cfa_register	%rbp
.Lghash_seh_setfp:

.Lghash_seh_prolog_end:
	subq	$820,%rsp
	andq	$(-64),%rsp
	vmovdqu64	64(%rdi),%xmm14
	movq	%rsi,%r10
	movq	%rdx,%r11
	orq	%r11,%r11
	jz	.L_CALC_AAD_done_uyhascjAseynrmu

	xorq	%rbx,%rbx
	vmovdqa64	SHUF_MASK(%rip),%zmm16

.L_get_AAD_loop48x16_uyhascjAseynrmu:
	cmpq	$768,%r11
	jl	.L_exit_AAD_loop48x16_uyhascjAseynrmu
	vmovdqu64	0(%r10),%zmm11
	vmovdqu64	64(%r10),%zmm3
	vmovdqu64	128(%r10),%zmm4
	vmovdqu64	192(%r10),%zmm5
	vpshufb	%zmm16,%zmm11,%zmm11
	vpshufb	%zmm16,%zmm3,%zmm3
	vpshufb	%zmm16,%zmm4,%zmm4
	vpshufb	%zmm16,%zmm5,%zmm5
	testq	%rbx,%rbx
	jnz	.L_skip_hkeys_precomputation_piFkvctfuaczosF

	vmovdqu64	288(%rdi),%zmm1
	vmovdqu64	%zmm1,704(%rsp)

	vmovdqu64	224(%rdi),%zmm9
	vmovdqu64	%zmm9,640(%rsp)


	vshufi64x2	$0x00,%zmm9,%zmm9,%zmm9

	vmovdqu64	160(%rdi),%zmm10
	vmovdqu64	%zmm10,576(%rsp)

	vmovdqu64	96(%rdi),%zmm12
	vmovdqu64	%zmm12,512(%rsp)

	vpclmulqdq	$0x11,%zmm9,%zmm10,%zmm13
	vpclmulqdq	$0x00,%zmm9,%zmm10,%zmm15
	vpclmulqdq	$0x01,%zmm9,%zmm10,%zmm17
	vpclmulqdq	$0x10,%zmm9,%zmm10,%zmm10
	vpxorq	%zmm17,%zmm10,%zmm10

	vpsrldq	$8,%zmm10,%zmm17
	vpslldq	$8,%zmm10,%zmm10
	vpxorq	%zmm17,%zmm13,%zmm13
	vpxorq	%zmm15,%zmm10,%zmm10



	vmovdqu64	POLY2(%rip),%zmm17

	vpclmulqdq	$0x01,%zmm10,%zmm17,%zmm15
	vpslldq	$8,%zmm15,%zmm15
	vpxorq	%zmm15,%zmm10,%zmm10



	vpclmulqdq	$0x00,%zmm10,%zmm17,%zmm15
	vpsrldq	$4,%zmm15,%zmm15
	vpclmulqdq	$0x10,%zmm10,%zmm17,%zmm10
	vpslldq	$4,%zmm10,%zmm10

	vpternlogq	$0x96,%zmm15,%zmm13,%zmm10

	vmovdqu64	%zmm10,448(%rsp)

	vpclmulqdq	$0x11,%zmm9,%zmm12,%zmm13
	vpclmulqdq	$0x00,%zmm9,%zmm12,%zmm15
	vpclmulqdq	$0x01,%zmm9,%zmm12,%zmm17
	vpclmulqdq	$0x10,%zmm9,%zmm12,%zmm12
	vpxorq	%zmm17,%zmm12,%zmm12

	vpsrldq	$8,%zmm12,%zmm17
	vpslldq	$8,%zmm12,%zmm12
	vpxorq	%zmm17,%zmm13,%zmm13
	vpxorq	%zmm15,%zmm12,%zmm12



	vmovdqu64	POLY2(%rip),%zmm17

	vpclmulqdq	$0x01,%zmm12,%zmm17,%zmm15
	vpslldq	$8,%zmm15,%zmm15
	vpxorq	%zmm15,%zmm12,%zmm12



	vpclmulqdq	$0x00,%zmm12,%zmm17,%zmm15
	vpsrldq	$4,%zmm15,%zmm15
	vpclmulqdq	$0x10,%zmm12,%zmm17,%zmm12
	vpslldq	$4,%zmm12,%zmm12

	vpternlogq	$0x96,%zmm15,%zmm13,%zmm12

	vmovdqu64	%zmm12,384(%rsp)

	vpclmulqdq	$0x11,%zmm9,%zmm10,%zmm13
	vpclmulqdq	$0x00,%zmm9,%zmm10,%zmm15
	vpclmulqdq	$0x01,%zmm9,%zmm10,%zmm17
	vpclmulqdq	$0x10,%zmm9,%zmm10,%zmm10
	vpxorq	%zmm17,%zmm10,%zmm10

	vpsrldq	$8,%zmm10,%zmm17
	vpslldq	$8,%zmm10,%zmm10
	vpxorq	%zmm17,%zmm13,%zmm13
	vpxorq	%zmm15,%zmm10,%zmm10



	vmovdqu64	POLY2(%rip),%zmm17

	vpclmulqdq	$0x01,%zmm10,%zmm17,%zmm15
	vpslldq	$8,%zmm15,%zmm15
	vpxorq	%zmm15,%zmm10,%zmm10



	vpclmulqdq	$0x00,%zmm10,%zmm17,%zmm15
	vpsrldq	$4,%zmm15,%zmm15
	vpclmulqdq	$0x10,%zmm10,%zmm17,%zmm10
	vpslldq	$4,%zmm10,%zmm10

	vpternlogq	$0x96,%zmm15,%zmm13,%zmm10

	vmovdqu64	%zmm10,320(%rsp)

	vpclmulqdq	$0x11,%zmm9,%zmm12,%zmm13
	vpclmulqdq	$0x00,%zmm9,%zmm12,%zmm15
	vpclmulqdq	$0x01,%zmm9,%zmm12,%zmm17
	vpclmulqdq	$0x10,%zmm9,%zmm12,%zmm12
	vpxorq	%zmm17,%zmm12,%zmm12

	vpsrldq	$8,%zmm12,%zmm17
	vpslldq	$8,%zmm12,%zmm12
	vpxorq	%zmm17,%zmm13,%zmm13
	vpxorq	%zmm15,%zmm12,%zmm12



	vmovdqu64	POLY2(%rip),%zmm17

	vpclmulqdq	$0x01,%zmm12,%zmm17,%zmm15
	vpslldq	$8,%zmm15,%zmm15
	vpxorq	%zmm15,%zmm12,%zmm12



	vpclmulqdq	$0x00,%zmm12,%zmm17,%zmm15
	vpsrldq	$4,%zmm15,%zmm15
	vpclmulqdq	$0x10,%zmm12,%zmm17,%zmm12
	vpslldq	$4,%zmm12,%zmm12

	vpternlogq	$0x96,%zmm15,%zmm13,%zmm12

	vmovdqu64	%zmm12,256(%rsp)

	vpclmulqdq	$0x11,%zmm9,%zmm10,%zmm13
	vpclmulqdq	$0x00,%zmm9,%zmm10,%zmm15
	vpclmulqdq	$0x01,%zmm9,%zmm10,%zmm17
	vpclmulqdq	$0x10,%zmm9,%zmm10,%zmm10
	vpxorq	%zmm17,%zmm10,%zmm10

	vpsrldq	$8,%zmm10,%zmm17
	vpslldq	$8,%zmm10,%zmm10
	vpxorq	%zmm17,%zmm13,%zmm13
	vpxorq	%zmm15,%zmm10,%zmm10



	vmovdqu64	POLY2(%rip),%zmm17

	vpclmulqdq	$0x01,%zmm10,%zmm17,%zmm15
	vpslldq	$8,%zmm15,%zmm15
	vpxorq	%zmm15,%zmm10,%zmm10



	vpclmulqdq	$0x00,%zmm10,%zmm17,%zmm15
	vpsrldq	$4,%zmm15,%zmm15
	vpclmulqdq	$0x10,%zmm10,%zmm17,%zmm10
	vpslldq	$4,%zmm10,%zmm10

	vpternlogq	$0x96,%zmm15,%zmm13,%zmm10

	vmovdqu64	%zmm10,192(%rsp)

	vpclmulqdq	$0x11,%zmm9,%zmm12,%zmm13
	vpclmulqdq	$0x00,%zmm9,%zmm12,%zmm15
	vpclmulqdq	$0x01,%zmm9,%zmm12,%zmm17
	vpclmulqdq	$0x10,%zmm9,%zmm12,%zmm12
	vpxorq	%zmm17,%zmm12,%zmm12

	vpsrldq	$8,%zmm12,%zmm17
	vpslldq	$8,%zmm12,%zmm12
	vpxorq	%zmm17,%zmm13,%zmm13
	vpxorq	%zmm15,%zmm12,%zmm12



	vmovdqu64	POLY2(%rip),%zmm17

	vpclmulqdq	$0x01,%zmm12,%zmm17,%zmm15
	vpslldq	$8,%zmm15,%zmm15
	vpxorq	%zmm15,%zmm12,%zmm12



	vpclmulqdq	$0x00,%zmm12,%zmm17,%zmm15
	vpsrldq	$4,%zmm15,%zmm15
	vpclmulqdq	$0x10,%zmm12,%zmm17,%zmm12
	vpslldq	$4,%zmm12,%zmm12

	vpternlogq	$0x96,%zmm15,%zmm13,%zmm12

	vmovdqu64	%zmm12,128(%rsp)

	vpclmulqdq	$0x11,%zmm9,%zmm10,%zmm13
	vpclmulqdq	$0x00,%zmm9,%zmm10,%zmm15
	vpclmulqdq	$0x01,%zmm9,%zmm10,%zmm17
	vpclmulqdq	$0x10,%zmm9,%zmm10,%zmm10
	vpxorq	%zmm17,%zmm10,%zmm10

	vpsrldq	$8,%zmm10,%zmm17
	vpslldq	$8,%zmm10,%zmm10
	vpxorq	%zmm17,%zmm13,%zmm13
	vpxorq	%zmm15,%zmm10,%zmm10



	vmovdqu64	POLY2(%rip),%zmm17

	vpclmulqdq	$0x01,%zmm10,%zmm17,%zmm15
	vpslldq	$8,%zmm15,%zmm15
	vpxorq	%zmm15,%zmm10,%zmm10



	vpclmulqdq	$0x00,%zmm10,%zmm17,%zmm15
	vpsrldq	$4,%zmm15,%zmm15
	vpclmulqdq	$0x10,%zmm10,%zmm17,%zmm10
	vpslldq	$4,%zmm10,%zmm10

	vpternlogq	$0x96,%zmm15,%zmm13,%zmm10

	vmovdqu64	%zmm10,64(%rsp)

	vpclmulqdq	$0x11,%zmm9,%zmm12,%zmm13
	vpclmulqdq	$0x00,%zmm9,%zmm12,%zmm15
	vpclmulqdq	$0x01,%zmm9,%zmm12,%zmm17
	vpclmulqdq	$0x10,%zmm9,%zmm12,%zmm12
	vpxorq	%zmm17,%zmm12,%zmm12

	vpsrldq	$8,%zmm12,%zmm17
	vpslldq	$8,%zmm12,%zmm12
	vpxorq	%zmm17,%zmm13,%zmm13
	vpxorq	%zmm15,%zmm12,%zmm12



	vmovdqu64	POLY2(%rip),%zmm17

	vpclmulqdq	$0x01,%zmm12,%zmm17,%zmm15
	vpslldq	$8,%zmm15,%zmm15
	vpxorq	%zmm15,%zmm12,%zmm12



	vpclmulqdq	$0x00,%zmm12,%zmm17,%zmm15
	vpsrldq	$4,%zmm15,%zmm15
	vpclmulqdq	$0x10,%zmm12,%zmm17,%zmm12
	vpslldq	$4,%zmm12,%zmm12

	vpternlogq	$0x96,%zmm15,%zmm13,%zmm12

	vmovdqu64	%zmm12,0(%rsp)
.L_skip_hkeys_precomputation_piFkvctfuaczosF:
	movq	$1,%rbx
	vpxorq	%zmm14,%zmm11,%zmm11
	vmovdqu64	0(%rsp),%zmm19
	vpclmulqdq	$0x11,%zmm19,%zmm11,%zmm1
	vpclmulqdq	$0x00,%zmm19,%zmm11,%zmm9
	vpclmulqdq	$0x01,%zmm19,%zmm11,%zmm10
	vpclmulqdq	$0x10,%zmm19,%zmm11,%zmm12
	vmovdqu64	64(%rsp),%zmm19
	vpclmulqdq	$0x11,%zmm19,%zmm3,%zmm13
	vpclmulqdq	$0x00,%zmm19,%zmm3,%zmm15
	vpclmulqdq	$0x01,%zmm19,%zmm3,%zmm17
	vpclmulqdq	$0x10,%zmm19,%zmm3,%zmm18
	vpxorq	%zmm17,%zmm10,%zmm7
	vpxorq	%zmm13,%zmm1,%zmm6
	vpxorq	%zmm15,%zmm9,%zmm8
	vpternlogq	$0x96,%zmm18,%zmm12,%zmm7
	vmovdqu64	128(%rsp),%zmm19
	vpclmulqdq	$0x11,%zmm19,%zmm4,%zmm1
	vpclmulqdq	$0x00,%zmm19,%zmm4,%zmm9
	vpclmulqdq	$0x01,%zmm19,%zmm4,%zmm10
	vpclmulqdq	$0x10,%zmm19,%zmm4,%zmm12
	vmovdqu64	192(%rsp),%zmm19
	vpclmulqdq	$0x11,%zmm19,%zmm5,%zmm13
	vpclmulqdq	$0x00,%zmm19,%zmm5,%zmm15
	vpclmulqdq	$0x01,%zmm19,%zmm5,%zmm17
	vpclmulqdq	$0x10,%zmm19,%zmm5,%zmm18

	vpternlogq	$0x96,%zmm17,%zmm10,%zmm7
	vpternlogq	$0x96,%zmm13,%zmm1,%zmm6
	vpternlogq	$0x96,%zmm15,%zmm9,%zmm8
	vpternlogq	$0x96,%zmm18,%zmm12,%zmm7
	vmovdqu64	256(%r10),%zmm11
	vmovdqu64	320(%r10),%zmm3
	vmovdqu64	384(%r10),%zmm4
	vmovdqu64	448(%r10),%zmm5
	vpshufb	%zmm16,%zmm11,%zmm11
	vpshufb	%zmm16,%zmm3,%zmm3
	vpshufb	%zmm16,%zmm4,%zmm4
	vpshufb	%zmm16,%zmm5,%zmm5
	vmovdqu64	256(%rsp),%zmm19
	vpclmulqdq	$0x11,%zmm19,%zmm11,%zmm1
	vpclmulqdq	$0x00,%zmm19,%zmm11,%zmm9
	vpclmulqdq	$0x01,%zmm19,%zmm11,%zmm10
	vpclmulqdq	$0x10,%zmm19,%zmm11,%zmm12
	vmovdqu64	320(%rsp),%zmm19
	vpclmulqdq	$0x11,%zmm19,%zmm3,%zmm13
	vpclmulqdq	$0x00,%zmm19,%zmm3,%zmm15
	vpclmulqdq	$0x01,%zmm19,%zmm3,%zmm17
	vpclmulqdq	$0x10,%zmm19,%zmm3,%zmm18
	vpternlogq	$0x96,%zmm17,%zmm10,%zmm7
	vpternlogq	$0x96,%zmm13,%zmm1,%zmm6
	vpternlogq	$0x96,%zmm15,%zmm9,%zmm8
	vpternlogq	$0x96,%zmm18,%zmm12,%zmm7
	vmovdqu64	384(%rsp),%zmm19
	vpclmulqdq	$0x11,%zmm19,%zmm4,%zmm1
	vpclmulqdq	$0x00,%zmm19,%zmm4,%zmm9
	vpclmulqdq	$0x01,%zmm19,%zmm4,%zmm10
	vpclmulqdq	$0x10,%zmm19,%zmm4,%zmm12
	vmovdqu64	448(%rsp),%zmm19
	vpclmulqdq	$0x11,%zmm19,%zmm5,%zmm13
	vpclmulqdq	$0x00,%zmm19,%zmm5,%zmm15
	vpclmulqdq	$0x01,%zmm19,%zmm5,%zmm17
	vpclmulqdq	$0x10,%zmm19,%zmm5,%zmm18

	vpternlogq	$0x96,%zmm17,%zmm10,%zmm7
	vpternlogq	$0x96,%zmm13,%zmm1,%zmm6
	vpternlogq	$0x96,%zmm15,%zmm9,%zmm8
	vpternlogq	$0x96,%zmm18,%zmm12,%zmm7
	vmovdqu64	512(%r10),%zmm11
	vmovdqu64	576(%r10),%zmm3
	vmovdqu64	640(%r10),%zmm4
	vmovdqu64	704(%r10),%zmm5
	vpshufb	%zmm16,%zmm11,%zmm11
	vpshufb	%zmm16,%zmm3,%zmm3
	vpshufb	%zmm16,%zmm4,%zmm4
	vpshufb	%zmm16,%zmm5,%zmm5
	vmovdqu64	512(%rsp),%zmm19
	vpclmulqdq	$0x11,%zmm19,%zmm11,%zmm1
	vpclmulqdq	$0x00,%zmm19,%zmm11,%zmm9
	vpclmulqdq	$0x01,%zmm19,%zmm11,%zmm10
	vpclmulqdq	$0x10,%zmm19,%zmm11,%zmm12
	vmovdqu64	576(%rsp),%zmm19
	vpclmulqdq	$0x11,%zmm19,%zmm3,%zmm13
	vpclmulqdq	$0x00,%zmm19,%zmm3,%zmm15
	vpclmulqdq	$0x01,%zmm19,%zmm3,%zmm17
	vpclmulqdq	$0x10,%zmm19,%zmm3,%zmm18
	vpternlogq	$0x96,%zmm17,%zmm10,%zmm7
	vpternlogq	$0x96,%zmm13,%zmm1,%zmm6
	vpternlogq	$0x96,%zmm15,%zmm9,%zmm8
	vpternlogq	$0x96,%zmm18,%zmm12,%zmm7
	vmovdqu64	640(%rsp),%zmm19
	vpclmulqdq	$0x11,%zmm19,%zmm4,%zmm1
	vpclmulqdq	$0x00,%zmm19,%zmm4,%zmm9
	vpclmulqdq	$0x01,%zmm19,%zmm4,%zmm10
	vpclmulqdq	$0x10,%zmm19,%zmm4,%zmm12
	vmovdqu64	704(%rsp),%zmm19
	vpclmulqdq	$0x11,%zmm19,%zmm5,%zmm13
	vpclmulqdq	$0x00,%zmm19,%zmm5,%zmm15
	vpclmulqdq	$0x01,%zmm19,%zmm5,%zmm17
	vpclmulqdq	$0x10,%zmm19,%zmm5,%zmm18

	vpternlogq	$0x96,%zmm17,%zmm10,%zmm7
	vpternlogq	$0x96,%zmm13,%zmm1,%zmm6
	vpternlogq	$0x96,%zmm15,%zmm9,%zmm8
	vpternlogq	$0x96,%zmm18,%zmm12,%zmm7

	vpsrldq	$8,%zmm7,%zmm1
	vpslldq	$8,%zmm7,%zmm9
	vpxorq	%zmm1,%zmm6,%zmm6
	vpxorq	%zmm9,%zmm8,%zmm8
	vextracti64x4	$1,%zmm6,%ymm1
	vpxorq	%ymm1,%ymm6,%ymm6
	vextracti32x4	$1,%ymm6,%xmm1
	vpxorq	%xmm1,%xmm6,%xmm6
	vextracti64x4	$1,%zmm8,%ymm9
	vpxorq	%ymm9,%ymm8,%ymm8
	vextracti32x4	$1,%ymm8,%xmm9
	vpxorq	%xmm9,%xmm8,%xmm8
	vmovdqa64	POLY2(%rip),%xmm10


	vpclmulqdq	$0x01,%xmm8,%xmm10,%xmm1
	vpslldq	$8,%xmm1,%xmm1
	vpxorq	%xmm1,%xmm8,%xmm1


	vpclmulqdq	$0x00,%xmm1,%xmm10,%xmm9
	vpsrldq	$4,%xmm9,%xmm9
	vpclmulqdq	$0x10,%xmm1,%xmm10,%xmm14
	vpslldq	$4,%xmm14,%xmm14
	vpternlogq	$0x96,%xmm6,%xmm9,%xmm14

	subq	$768,%r11
	je	.L_CALC_AAD_done_uyhascjAseynrmu

	addq	$768,%r10
	jmp	.L_get_AAD_loop48x16_uyhascjAseynrmu

.L_exit_AAD_loop48x16_uyhascjAseynrmu:

	cmpq	$512,%r11
	jl	.L_less_than_32x16_uyhascjAseynrmu

	vmovdqu64	0(%r10),%zmm11
	vmovdqu64	64(%r10),%zmm3
	vmovdqu64	128(%r10),%zmm4
	vmovdqu64	192(%r10),%zmm5
	vpshufb	%zmm16,%zmm11,%zmm11
	vpshufb	%zmm16,%zmm3,%zmm3
	vpshufb	%zmm16,%zmm4,%zmm4
	vpshufb	%zmm16,%zmm5,%zmm5
	testq	%rbx,%rbx
	jnz	.L_skip_hkeys_precomputation_kcndyjFAleaxiCz

	vmovdqu64	288(%rdi),%zmm1
	vmovdqu64	%zmm1,704(%rsp)

	vmovdqu64	224(%rdi),%zmm9
	vmovdqu64	%zmm9,640(%rsp)


	vshufi64x2	$0x00,%zmm9,%zmm9,%zmm9

	vmovdqu64	160(%rdi),%zmm10
	vmovdqu64	%zmm10,576(%rsp)

	vmovdqu64	96(%rdi),%zmm12
	vmovdqu64	%zmm12,512(%rsp)

	vpclmulqdq	$0x11,%zmm9,%zmm10,%zmm13
	vpclmulqdq	$0x00,%zmm9,%zmm10,%zmm15
	vpclmulqdq	$0x01,%zmm9,%zmm10,%zmm17
	vpclmulqdq	$0x10,%zmm9,%zmm10,%zmm10
	vpxorq	%zmm17,%zmm10,%zmm10

	vpsrldq	$8,%zmm10,%zmm17
	vpslldq	$8,%zmm10,%zmm10
	vpxorq	%zmm17,%zmm13,%zmm13
	vpxorq	%zmm15,%zmm10,%zmm10



	vmovdqu64	POLY2(%rip),%zmm17

	vpclmulqdq	$0x01,%zmm10,%zmm17,%zmm15
	vpslldq	$8,%zmm15,%zmm15
	vpxorq	%zmm15,%zmm10,%zmm10



	vpclmulqdq	$0x00,%zmm10,%zmm17,%zmm15
	vpsrldq	$4,%zmm15,%zmm15
	vpclmulqdq	$0x10,%zmm10,%zmm17,%zmm10
	vpslldq	$4,%zmm10,%zmm10

	vpternlogq	$0x96,%zmm15,%zmm13,%zmm10

	vmovdqu64	%zmm10,448(%rsp)

	vpclmulqdq	$0x11,%zmm9,%zmm12,%zmm13
	vpclmulqdq	$0x00,%zmm9,%zmm12,%zmm15
	vpclmulqdq	$0x01,%zmm9,%zmm12,%zmm17
	vpclmulqdq	$0x10,%zmm9,%zmm12,%zmm12
	vpxorq	%zmm17,%zmm12,%zmm12

	vpsrldq	$8,%zmm12,%zmm17
	vpslldq	$8,%zmm12,%zmm12
	vpxorq	%zmm17,%zmm13,%zmm13
	vpxorq	%zmm15,%zmm12,%zmm12



	vmovdqu64	POLY2(%rip),%zmm17

	vpclmulqdq	$0x01,%zmm12,%zmm17,%zmm15
	vpslldq	$8,%zmm15,%zmm15
	vpxorq	%zmm15,%zmm12,%zmm12



	vpclmulqdq	$0x00,%zmm12,%zmm17,%zmm15
	vpsrldq	$4,%zmm15,%zmm15
	vpclmulqdq	$0x10,%zmm12,%zmm17,%zmm12
	vpslldq	$4,%zmm12,%zmm12

	vpternlogq	$0x96,%zmm15,%zmm13,%zmm12

	vmovdqu64	%zmm12,384(%rsp)

	vpclmulqdq	$0x11,%zmm9,%zmm10,%zmm13
	vpclmulqdq	$0x00,%zmm9,%zmm10,%zmm15
	vpclmulqdq	$0x01,%zmm9,%zmm10,%zmm17
	vpclmulqdq	$0x10,%zmm9,%zmm10,%zmm10
	vpxorq	%zmm17,%zmm10,%zmm10

	vpsrldq	$8,%zmm10,%zmm17
	vpslldq	$8,%zmm10,%zmm10
	vpxorq	%zmm17,%zmm13,%zmm13
	vpxorq	%zmm15,%zmm10,%zmm10



	vmovdqu64	POLY2(%rip),%zmm17

	vpclmulqdq	$0x01,%zmm10,%zmm17,%zmm15
	vpslldq	$8,%zmm15,%zmm15
	vpxorq	%zmm15,%zmm10,%zmm10



	vpclmulqdq	$0x00,%zmm10,%zmm17,%zmm15
	vpsrldq	$4,%zmm15,%zmm15
	vpclmulqdq	$0x10,%zmm10,%zmm17,%zmm10
	vpslldq	$4,%zmm10,%zmm10

	vpternlogq	$0x96,%zmm15,%zmm13,%zmm10

	vmovdqu64	%zmm10,320(%rsp)

	vpclmulqdq	$0x11,%zmm9,%zmm12,%zmm13
	vpclmulqdq	$0x00,%zmm9,%zmm12,%zmm15
	vpclmulqdq	$0x01,%zmm9,%zmm12,%zmm17
	vpclmulqdq	$0x10,%zmm9,%zmm12,%zmm12
	vpxorq	%zmm17,%zmm12,%zmm12

	vpsrldq	$8,%zmm12,%zmm17
	vpslldq	$8,%zmm12,%zmm12
	vpxorq	%zmm17,%zmm13,%zmm13
	vpxorq	%zmm15,%zmm12,%zmm12



	vmovdqu64	POLY2(%rip),%zmm17

	vpclmulqdq	$0x01,%zmm12,%zmm17,%zmm15
	vpslldq	$8,%zmm15,%zmm15
	vpxorq	%zmm15,%zmm12,%zmm12



	vpclmulqdq	$0x00,%zmm12,%zmm17,%zmm15
	vpsrldq	$4,%zmm15,%zmm15
	vpclmulqdq	$0x10,%zmm12,%zmm17,%zmm12
	vpslldq	$4,%zmm12,%zmm12

	vpternlogq	$0x96,%zmm15,%zmm13,%zmm12

	vmovdqu64	%zmm12,256(%rsp)
.L_skip_hkeys_precomputation_kcndyjFAleaxiCz:
	movq	$1,%rbx
	vpxorq	%zmm14,%zmm11,%zmm11
	vmovdqu64	256(%rsp),%zmm19
	vpclmulqdq	$0x11,%zmm19,%zmm11,%zmm1
	vpclmulqdq	$0x00,%zmm19,%zmm11,%zmm9
	vpclmulqdq	$0x01,%zmm19,%zmm11,%zmm10
	vpclmulqdq	$0x10,%zmm19,%zmm11,%zmm12
	vmovdqu64	320(%rsp),%zmm19
	vpclmulqdq	$0x11,%zmm19,%zmm3,%zmm13
	vpclmulqdq	$0x00,%zmm19,%zmm3,%zmm15
	vpclmulqdq	$0x01,%zmm19,%zmm3,%zmm17
	vpclmulqdq	$0x10,%zmm19,%zmm3,%zmm18
	vpxorq	%zmm17,%zmm10,%zmm7
	vpxorq	%zmm13,%zmm1,%zmm6
	vpxorq	%zmm15,%zmm9,%zmm8
	vpternlogq	$0x96,%zmm18,%zmm12,%zmm7
	vmovdqu64	384(%rsp),%zmm19
	vpclmulqdq	$0x11,%zmm19,%zmm4,%zmm1
	vpclmulqdq	$0x00,%zmm19,%zmm4,%zmm9
	vpclmulqdq	$0x01,%zmm19,%zmm4,%zmm10
	vpclmulqdq	$0x10,%zmm19,%zmm4,%zmm12
	vmovdqu64	448(%rsp),%zmm19
	vpclmulqdq	$0x11,%zmm19,%zmm5,%zmm13
	vpclmulqdq	$0x00,%zmm19,%zmm5,%zmm15
	vpclmulqdq	$0x01,%zmm19,%zmm5,%zmm17
	vpclmulqdq	$0x10,%zmm19,%zmm5,%zmm18

	vpternlogq	$0x96,%zmm17,%zmm10,%zmm7
	vpternlogq	$0x96,%zmm13,%zmm1,%zmm6
	vpternlogq	$0x96,%zmm15,%zmm9,%zmm8
	vpternlogq	$0x96,%zmm18,%zmm12,%zmm7
	vmovdqu64	256(%r10),%zmm11
	vmovdqu64	320(%r10),%zmm3
	vmovdqu64	384(%r10),%zmm4
	vmovdqu64	448(%r10),%zmm5
	vpshufb	%zmm16,%zmm11,%zmm11
	vpshufb	%zmm16,%zmm3,%zmm3
	vpshufb	%zmm16,%zmm4,%zmm4
	vpshufb	%zmm16,%zmm5,%zmm5
	vmovdqu64	512(%rsp),%zmm19
	vpclmulqdq	$0x11,%zmm19,%zmm11,%zmm1
	vpclmulqdq	$0x00,%zmm19,%zmm11,%zmm9
	vpclmulqdq	$0x01,%zmm19,%zmm11,%zmm10
	vpclmulqdq	$0x10,%zmm19,%zmm11,%zmm12
	vmovdqu64	576(%rsp),%zmm19
	vpclmulqdq	$0x11,%zmm19,%zmm3,%zmm13
	vpclmulqdq	$0x00,%zmm19,%zmm3,%zmm15
	vpclmulqdq	$0x01,%zmm19,%zmm3,%zmm17
	vpclmulqdq	$0x10,%zmm19,%zmm3,%zmm18
	vpternlogq	$0x96,%zmm17,%zmm10,%zmm7
	vpternlogq	$0x96,%zmm13,%zmm1,%zmm6
	vpternlogq	$0x96,%zmm15,%zmm9,%zmm8
	vpternlogq	$0x96,%zmm18,%zmm12,%zmm7
	vmovdqu64	640(%rsp),%zmm19
	vpclmulqdq	$0x11,%zmm19,%zmm4,%zmm1
	vpclmulqdq	$0x00,%zmm19,%zmm4,%zmm9
	vpclmulqdq	$0x01,%zmm19,%zmm4,%zmm10
	vpclmulqdq	$0x10,%zmm19,%zmm4,%zmm12
	vmovdqu64	704(%rsp),%zmm19
	vpclmulqdq	$0x11,%zmm19,%zmm5,%zmm13
	vpclmulqdq	$0x00,%zmm19,%zmm5,%zmm15
	vpclmulqdq	$0x01,%zmm19,%zmm5,%zmm17
	vpclmulqdq	$0x10,%zmm19,%zmm5,%zmm18

	vpternlogq	$0x96,%zmm17,%zmm10,%zmm7
	vpternlogq	$0x96,%zmm13,%zmm1,%zmm6
	vpternlogq	$0x96,%zmm15,%zmm9,%zmm8
	vpternlogq	$0x96,%zmm18,%zmm12,%zmm7

	vpsrldq	$8,%zmm7,%zmm1
	vpslldq	$8,%zmm7,%zmm9
	vpxorq	%zmm1,%zmm6,%zmm6
	vpxorq	%zmm9,%zmm8,%zmm8
	vextracti64x4	$1,%zmm6,%ymm1
	vpxorq	%ymm1,%ymm6,%ymm6
	vextracti32x4	$1,%ymm6,%xmm1
	vpxorq	%xmm1,%xmm6,%xmm6
	vextracti64x4	$1,%zmm8,%ymm9
	vpxorq	%ymm9,%ymm8,%ymm8
	vextracti32x4	$1,%ymm8,%xmm9
	vpxorq	%xmm9,%xmm8,%xmm8
	vmovdqa64	POLY2(%rip),%xmm10


	vpclmulqdq	$0x01,%xmm8,%xmm10,%xmm1
	vpslldq	$8,%xmm1,%xmm1
	vpxorq	%xmm1,%xmm8,%xmm1


	vpclmulqdq	$0x00,%xmm1,%xmm10,%xmm9
	vpsrldq	$4,%xmm9,%xmm9
	vpclmulqdq	$0x10,%xmm1,%xmm10,%xmm14
	vpslldq	$4,%xmm14,%xmm14
	vpternlogq	$0x96,%xmm6,%xmm9,%xmm14

	subq	$512,%r11
	je	.L_CALC_AAD_done_uyhascjAseynrmu

	addq	$512,%r10
	jmp	.L_less_than_16x16_uyhascjAseynrmu

.L_less_than_32x16_uyhascjAseynrmu:
	cmpq	$256,%r11
	jl	.L_less_than_16x16_uyhascjAseynrmu

	vmovdqu64	0(%r10),%zmm11
	vmovdqu64	64(%r10),%zmm3
	vmovdqu64	128(%r10),%zmm4
	vmovdqu64	192(%r10),%zmm5
	vpshufb	%zmm16,%zmm11,%zmm11
	vpshufb	%zmm16,%zmm3,%zmm3
	vpshufb	%zmm16,%zmm4,%zmm4
	vpshufb	%zmm16,%zmm5,%zmm5
	vpxorq	%zmm14,%zmm11,%zmm11
	vmovdqu64	96(%rdi),%zmm19
	vpclmulqdq	$0x11,%zmm19,%zmm11,%zmm1
	vpclmulqdq	$0x00,%zmm19,%zmm11,%zmm9
	vpclmulqdq	$0x01,%zmm19,%zmm11,%zmm10
	vpclmulqdq	$0x10,%zmm19,%zmm11,%zmm12
	vmovdqu64	160(%rdi),%zmm19
	vpclmulqdq	$0x11,%zmm19,%zmm3,%zmm13
	vpclmulqdq	$0x00,%zmm19,%zmm3,%zmm15
	vpclmulqdq	$0x01,%zmm19,%zmm3,%zmm17
	vpclmulqdq	$0x10,%zmm19,%zmm3,%zmm18
	vpxorq	%zmm17,%zmm10,%zmm7
	vpxorq	%zmm13,%zmm1,%zmm6
	vpxorq	%zmm15,%zmm9,%zmm8
	vpternlogq	$0x96,%zmm18,%zmm12,%zmm7
	vmovdqu64	224(%rdi),%zmm19
	vpclmulqdq	$0x11,%zmm19,%zmm4,%zmm1
	vpclmulqdq	$0x00,%zmm19,%zmm4,%zmm9
	vpclmulqdq	$0x01,%zmm19,%zmm4,%zmm10
	vpclmulqdq	$0x10,%zmm19,%zmm4,%zmm12
	vmovdqu64	288(%rdi),%zmm19
	vpclmulqdq	$0x11,%zmm19,%zmm5,%zmm13
	vpclmulqdq	$0x00,%zmm19,%zmm5,%zmm15
	vpclmulqdq	$0x01,%zmm19,%zmm5,%zmm17
	vpclmulqdq	$0x10,%zmm19,%zmm5,%zmm18

	vpternlogq	$0x96,%zmm17,%zmm10,%zmm7
	vpternlogq	$0x96,%zmm13,%zmm1,%zmm6
	vpternlogq	$0x96,%zmm15,%zmm9,%zmm8
	vpternlogq	$0x96,%zmm18,%zmm12,%zmm7

	vpsrldq	$8,%zmm7,%zmm1
	vpslldq	$8,%zmm7,%zmm9
	vpxorq	%zmm1,%zmm6,%zmm6
	vpxorq	%zmm9,%zmm8,%zmm8
	vextracti64x4	$1,%zmm6,%ymm1
	vpxorq	%ymm1,%ymm6,%ymm6
	vextracti32x4	$1,%ymm6,%xmm1
	vpxorq	%xmm1,%xmm6,%xmm6
	vextracti64x4	$1,%zmm8,%ymm9
	vpxorq	%ymm9,%ymm8,%ymm8
	vextracti32x4	$1,%ymm8,%xmm9
	vpxorq	%xmm9,%xmm8,%xmm8
	vmovdqa64	POLY2(%rip),%xmm10


	vpclmulqdq	$0x01,%xmm8,%xmm10,%xmm1
	vpslldq	$8,%xmm1,%xmm1
	vpxorq	%xmm1,%xmm8,%xmm1


	vpclmulqdq	$0x00,%xmm1,%xmm10,%xmm9
	vpsrldq	$4,%xmm9,%xmm9
	vpclmulqdq	$0x10,%xmm1,%xmm10,%xmm14
	vpslldq	$4,%xmm14,%xmm14
	vpternlogq	$0x96,%xmm6,%xmm9,%xmm14

	subq	$256,%r11
	je	.L_CALC_AAD_done_uyhascjAseynrmu

	addq	$256,%r10

.L_less_than_16x16_uyhascjAseynrmu:

	leaq	byte64_len_to_mask_table(%rip),%r12
	leaq	(%r12,%r11,8),%r12


	addl	$15,%r11d
	shrl	$4,%r11d
	cmpl	$2,%r11d
	jb	.L_AAD_blocks_1_uyhascjAseynrmu
	je	.L_AAD_blocks_2_uyhascjAseynrmu
	cmpl	$4,%r11d
	jb	.L_AAD_blocks_3_uyhascjAseynrmu
	je	.L_AAD_blocks_4_uyhascjAseynrmu
	cmpl	$6,%r11d
	jb	.L_AAD_blocks_5_uyhascjAseynrmu
	je	.L_AAD_blocks_6_uyhascjAseynrmu
	cmpl	$8,%r11d
	jb	.L_AAD_blocks_7_uyhascjAseynrmu
	je	.L_AAD_blocks_8_uyhascjAseynrmu
	cmpl	$10,%r11d
	jb	.L_AAD_blocks_9_uyhascjAseynrmu
	je	.L_AAD_blocks_10_uyhascjAseynrmu
	cmpl	$12,%r11d
	jb	.L_AAD_blocks_11_uyhascjAseynrmu
	je	.L_AAD_blocks_12_uyhascjAseynrmu
	cmpl	$14,%r11d
	jb	.L_AAD_blocks_13_uyhascjAseynrmu
	je	.L_AAD_blocks_14_uyhascjAseynrmu
	cmpl	$15,%r11d
	je	.L_AAD_blocks_15_uyhascjAseynrmu
.L_AAD_blocks_16_uyhascjAseynrmu:
	subq	$1536,%r12
	kmovq	(%r12),%k1
	vmovdqu8	0(%r10),%zmm11
	vmovdqu8	64(%r10),%zmm3
	vmovdqu8	128(%r10),%zmm4
	vmovdqu8	192(%r10),%zmm5{%k1}{z}
	vpshufb	%zmm16,%zmm11,%zmm11
	vpshufb	%zmm16,%zmm3,%zmm3
	vpshufb	%zmm16,%zmm4,%zmm4
	vpshufb	%zmm16,%zmm5,%zmm5
	vpxorq	%zmm14,%zmm11,%zmm11
	vmovdqu64	96(%rdi),%zmm15
	vpclmulqdq	$0x11,%zmm15,%zmm11,%zmm1
	vpclmulqdq	$0x00,%zmm15,%zmm11,%zmm6
	vpclmulqdq	$0x01,%zmm15,%zmm11,%zmm7
	vpclmulqdq	$0x10,%zmm15,%zmm11,%zmm8
	vmovdqu64	160(%rdi),%zmm15
	vpclmulqdq	$0x11,%zmm15,%zmm3,%zmm9
	vpclmulqdq	$0x00,%zmm15,%zmm3,%zmm10
	vpclmulqdq	$0x01,%zmm15,%zmm3,%zmm12
	vpclmulqdq	$0x10,%zmm15,%zmm3,%zmm13
	vmovdqu64	224(%rdi),%zmm15
	vpclmulqdq	$0x11,%zmm15,%zmm4,%zmm11
	vpclmulqdq	$0x00,%zmm15,%zmm4,%zmm3
	vpternlogq	$0x96,%zmm9,%zmm11,%zmm1
	vpternlogq	$0x96,%zmm10,%zmm3,%zmm6
	vpclmulqdq	$0x01,%zmm15,%zmm4,%zmm11
	vpclmulqdq	$0x10,%zmm15,%zmm4,%zmm3
	vpternlogq	$0x96,%zmm12,%zmm11,%zmm7
	vpternlogq	$0x96,%zmm13,%zmm3,%zmm8
	vmovdqu64	288(%rdi),%zmm15
	vpclmulqdq	$0x11,%zmm15,%zmm5,%zmm9
	vpclmulqdq	$0x00,%zmm15,%zmm5,%zmm10
	vpclmulqdq	$0x01,%zmm15,%zmm5,%zmm12
	vpclmulqdq	$0x10,%zmm15,%zmm5,%zmm13
	vpxorq	%zmm9,%zmm1,%zmm9
	vpxorq	%zmm10,%zmm6,%zmm10
	vpxorq	%zmm12,%zmm7,%zmm12
	vpxorq	%zmm13,%zmm8,%zmm13

	vpxorq	%zmm13,%zmm12,%zmm12
	vpsrldq	$8,%zmm12,%zmm7
	vpslldq	$8,%zmm12,%zmm8
	vpxorq	%zmm7,%zmm9,%zmm1
	vpxorq	%zmm8,%zmm10,%zmm6
	vextracti64x4	$1,%zmm1,%ymm12
	vpxorq	%ymm12,%ymm1,%ymm1
	vextracti32x4	$1,%ymm1,%xmm12
	vpxorq	%xmm12,%xmm1,%xmm1
	vextracti64x4	$1,%zmm6,%ymm13
	vpxorq	%ymm13,%ymm6,%ymm6
	vextracti32x4	$1,%ymm6,%xmm13
	vpxorq	%xmm13,%xmm6,%xmm6
	vmovdqa64	POLY2(%rip),%xmm15


	vpclmulqdq	$0x01,%xmm6,%xmm15,%xmm7
	vpslldq	$8,%xmm7,%xmm7
	vpxorq	%xmm7,%xmm6,%xmm7


	vpclmulqdq	$0x00,%xmm7,%xmm15,%xmm8
	vpsrldq	$4,%xmm8,%xmm8
	vpclmulqdq	$0x10,%xmm7,%xmm15,%xmm14
	vpslldq	$4,%xmm14,%xmm14
	vpternlogq	$0x96,%xmm1,%xmm8,%xmm14

	jmp	.L_CALC_AAD_done_uyhascjAseynrmu
.L_AAD_blocks_15_uyhascjAseynrmu:
	subq	$1536,%r12
	kmovq	(%r12),%k1
	vmovdqu8	0(%r10),%zmm11
	vmovdqu8	64(%r10),%zmm3
	vmovdqu8	128(%r10),%zmm4
	vmovdqu8	192(%r10),%zmm5{%k1}{z}
	vpshufb	%zmm16,%zmm11,%zmm11
	vpshufb	%zmm16,%zmm3,%zmm3
	vpshufb	%zmm16,%zmm4,%zmm4
	vpshufb	%zmm16,%zmm5,%zmm5
	vpxorq	%zmm14,%zmm11,%zmm11
	vmovdqu64	112(%rdi),%zmm15
	vpclmulqdq	$0x11,%zmm15,%zmm11,%zmm1
	vpclmulqdq	$0x00,%zmm15,%zmm11,%zmm6
	vpclmulqdq	$0x01,%zmm15,%zmm11,%zmm7
	vpclmulqdq	$0x10,%zmm15,%zmm11,%zmm8
	vmovdqu64	176(%rdi),%zmm15
	vpclmulqdq	$0x11,%zmm15,%zmm3,%zmm9
	vpclmulqdq	$0x00,%zmm15,%zmm3,%zmm10
	vpclmulqdq	$0x01,%zmm15,%zmm3,%zmm12
	vpclmulqdq	$0x10,%zmm15,%zmm3,%zmm13
	vmovdqu64	240(%rdi),%zmm15
	vpclmulqdq	$0x11,%zmm15,%zmm4,%zmm11
	vpclmulqdq	$0x00,%zmm15,%zmm4,%zmm3
	vpternlogq	$0x96,%zmm1,%zmm11,%zmm9
	vpternlogq	$0x96,%zmm6,%zmm3,%zmm10
	vpclmulqdq	$0x01,%zmm15,%zmm4,%zmm11
	vpclmulqdq	$0x10,%zmm15,%zmm4,%zmm3
	vpternlogq	$0x96,%zmm7,%zmm11,%zmm12
	vpternlogq	$0x96,%zmm8,%zmm3,%zmm13
	vmovdqu64	304(%rdi),%ymm15
	vinserti64x2	$2,336(%rdi),%zmm15,%zmm15
	vpclmulqdq	$0x01,%zmm15,%zmm5,%zmm7
	vpclmulqdq	$0x10,%zmm15,%zmm5,%zmm8
	vpclmulqdq	$0x11,%zmm15,%zmm5,%zmm1
	vpclmulqdq	$0x00,%zmm15,%zmm5,%zmm6

	vpxorq	%zmm12,%zmm7,%zmm7
	vpxorq	%zmm13,%zmm8,%zmm8
	vpxorq	%zmm9,%zmm1,%zmm1
	vpxorq	%zmm10,%zmm6,%zmm6

	vpxorq	%zmm8,%zmm7,%zmm7
	vpsrldq	$8,%zmm7,%zmm12
	vpslldq	$8,%zmm7,%zmm13
	vpxorq	%zmm12,%zmm1,%zmm1
	vpxorq	%zmm13,%zmm6,%zmm6
	vextracti64x4	$1,%zmm1,%ymm12
	vpxorq	%ymm12,%ymm1,%ymm1
	vextracti32x4	$1,%ymm1,%xmm12
	vpxorq	%xmm12,%xmm1,%xmm1
	vextracti64x4	$1,%zmm6,%ymm13
	vpxorq	%ymm13,%ymm6,%ymm6
	vextracti32x4	$1,%ymm6,%xmm13
	vpxorq	%xmm13,%xmm6,%xmm6
	vmovdqa64	POLY2(%rip),%xmm15


	vpclmulqdq	$0x01,%xmm6,%xmm15,%xmm7
	vpslldq	$8,%xmm7,%xmm7
	vpxorq	%xmm7,%xmm6,%xmm7


	vpclmulqdq	$0x00,%xmm7,%xmm15,%xmm8
	vpsrldq	$4,%xmm8,%xmm8
	vpclmulqdq	$0x10,%xmm7,%xmm15,%xmm14
	vpslldq	$4,%xmm14,%xmm14
	vpternlogq	$0x96,%xmm1,%xmm8,%xmm14

	jmp	.L_CALC_AAD_done_uyhascjAseynrmu
.L_AAD_blocks_14_uyhascjAseynrmu:
	subq	$1536,%r12
	kmovq	(%r12),%k1
	vmovdqu8	0(%r10),%zmm11
	vmovdqu8	64(%r10),%zmm3
	vmovdqu8	128(%r10),%zmm4
	vmovdqu8	192(%r10),%ymm5{%k1}{z}
	vpshufb	%zmm16,%zmm11,%zmm11
	vpshufb	%zmm16,%zmm3,%zmm3
	vpshufb	%zmm16,%zmm4,%zmm4
	vpshufb	%ymm16,%ymm5,%ymm5
	vpxorq	%zmm14,%zmm11,%zmm11
	vmovdqu64	128(%rdi),%zmm15
	vpclmulqdq	$0x11,%zmm15,%zmm11,%zmm1
	vpclmulqdq	$0x00,%zmm15,%zmm11,%zmm6
	vpclmulqdq	$0x01,%zmm15,%zmm11,%zmm7
	vpclmulqdq	$0x10,%zmm15,%zmm11,%zmm8
	vmovdqu64	192(%rdi),%zmm15
	vpclmulqdq	$0x11,%zmm15,%zmm3,%zmm9
	vpclmulqdq	$0x00,%zmm15,%zmm3,%zmm10
	vpclmulqdq	$0x01,%zmm15,%zmm3,%zmm12
	vpclmulqdq	$0x10,%zmm15,%zmm3,%zmm13
	vmovdqu64	256(%rdi),%zmm15
	vpclmulqdq	$0x11,%zmm15,%zmm4,%zmm11
	vpclmulqdq	$0x00,%zmm15,%zmm4,%zmm3
	vpternlogq	$0x96,%zmm1,%zmm11,%zmm9
	vpternlogq	$0x96,%zmm6,%zmm3,%zmm10
	vpclmulqdq	$0x01,%zmm15,%zmm4,%zmm11
	vpclmulqdq	$0x10,%zmm15,%zmm4,%zmm3
	vpternlogq	$0x96,%zmm7,%zmm11,%zmm12
	vpternlogq	$0x96,%zmm8,%zmm3,%zmm13
	vmovdqu64	320(%rdi),%ymm15
	vpclmulqdq	$0x01,%ymm15,%ymm5,%ymm7
	vpclmulqdq	$0x10,%ymm15,%ymm5,%ymm8
	vpclmulqdq	$0x11,%ymm15,%ymm5,%ymm1
	vpclmulqdq	$0x00,%ymm15,%ymm5,%ymm6

	vpxorq	%zmm12,%zmm7,%zmm7
	vpxorq	%zmm13,%zmm8,%zmm8
	vpxorq	%zmm9,%zmm1,%zmm1
	vpxorq	%zmm10,%zmm6,%zmm6

	vpxorq	%zmm8,%zmm7,%zmm7
	vpsrldq	$8,%zmm7,%zmm12
	vpslldq	$8,%zmm7,%zmm13
	vpxorq	%zmm12,%zmm1,%zmm1
	vpxorq	%zmm13,%zmm6,%zmm6
	vextracti64x4	$1,%zmm1,%ymm12
	vpxorq	%ymm12,%ymm1,%ymm1
	vextracti32x4	$1,%ymm1,%xmm12
	vpxorq	%xmm12,%xmm1,%xmm1
	vextracti64x4	$1,%zmm6,%ymm13
	vpxorq	%ymm13,%ymm6,%ymm6
	vextracti32x4	$1,%ymm6,%xmm13
	vpxorq	%xmm13,%xmm6,%xmm6
	vmovdqa64	POLY2(%rip),%xmm15


	vpclmulqdq	$0x01,%xmm6,%xmm15,%xmm7
	vpslldq	$8,%xmm7,%xmm7
	vpxorq	%xmm7,%xmm6,%xmm7


	vpclmulqdq	$0x00,%xmm7,%xmm15,%xmm8
	vpsrldq	$4,%xmm8,%xmm8
	vpclmulqdq	$0x10,%xmm7,%xmm15,%xmm14
	vpslldq	$4,%xmm14,%xmm14
	vpternlogq	$0x96,%xmm1,%xmm8,%xmm14

	jmp	.L_CALC_AAD_done_uyhascjAseynrmu
.L_AAD_blocks_13_uyhascjAseynrmu:
	subq	$1536,%r12
	kmovq	(%r12),%k1
	vmovdqu8	0(%r10),%zmm11
	vmovdqu8	64(%r10),%zmm3
	vmovdqu8	128(%r10),%zmm4
	vmovdqu8	192(%r10),%xmm5{%k1}{z}
	vpshufb	%zmm16,%zmm11,%zmm11
	vpshufb	%zmm16,%zmm3,%zmm3
	vpshufb	%zmm16,%zmm4,%zmm4
	vpshufb	%xmm16,%xmm5,%xmm5
	vpxorq	%zmm14,%zmm11,%zmm11
	vmovdqu64	144(%rdi),%zmm15
	vpclmulqdq	$0x11,%zmm15,%zmm11,%zmm1
	vpclmulqdq	$0x00,%zmm15,%zmm11,%zmm6
	vpclmulqdq	$0x01,%zmm15,%zmm11,%zmm7
	vpclmulqdq	$0x10,%zmm15,%zmm11,%zmm8
	vmovdqu64	208(%rdi),%zmm15
	vpclmulqdq	$0x11,%zmm15,%zmm3,%zmm9
	vpclmulqdq	$0x00,%zmm15,%zmm3,%zmm10
	vpclmulqdq	$0x01,%zmm15,%zmm3,%zmm12
	vpclmulqdq	$0x10,%zmm15,%zmm3,%zmm13
	vmovdqu64	272(%rdi),%zmm15
	vpclmulqdq	$0x11,%zmm15,%zmm4,%zmm11
	vpclmulqdq	$0x00,%zmm15,%zmm4,%zmm3
	vpternlogq	$0x96,%zmm1,%zmm11,%zmm9
	vpternlogq	$0x96,%zmm6,%zmm3,%zmm10
	vpclmulqdq	$0x01,%zmm15,%zmm4,%zmm11
	vpclmulqdq	$0x10,%zmm15,%zmm4,%zmm3
	vpternlogq	$0x96,%zmm7,%zmm11,%zmm12
	vpternlogq	$0x96,%zmm8,%zmm3,%zmm13
	vmovdqu64	336(%rdi),%xmm15
	vpclmulqdq	$0x01,%xmm15,%xmm5,%xmm7
	vpclmulqdq	$0x10,%xmm15,%xmm5,%xmm8
	vpclmulqdq	$0x11,%xmm15,%xmm5,%xmm1
	vpclmulqdq	$0x00,%xmm15,%xmm5,%xmm6

	vpxorq	%zmm12,%zmm7,%zmm7
	vpxorq	%zmm13,%zmm8,%zmm8
	vpxorq	%zmm9,%zmm1,%zmm1
	vpxorq	%zmm10,%zmm6,%zmm6

	vpxorq	%zmm8,%zmm7,%zmm7
	vpsrldq	$8,%zmm7,%zmm12
	vpslldq	$8,%zmm7,%zmm13
	vpxorq	%zmm12,%zmm1,%zmm1
	vpxorq	%zmm13,%zmm6,%zmm6
	vextracti64x4	$1,%zmm1,%ymm12
	vpxorq	%ymm12,%ymm1,%ymm1
	vextracti32x4	$1,%ymm1,%xmm12
	vpxorq	%xmm12,%xmm1,%xmm1
	vextracti64x4	$1,%zmm6,%ymm13
	vpxorq	%ymm13,%ymm6,%ymm6
	vextracti32x4	$1,%ymm6,%xmm13
	vpxorq	%xmm13,%xmm6,%xmm6
	vmovdqa64	POLY2(%rip),%xmm15


	vpclmulqdq	$0x01,%xmm6,%xmm15,%xmm7
	vpslldq	$8,%xmm7,%xmm7
	vpxorq	%xmm7,%xmm6,%xmm7


	vpclmulqdq	$0x00,%xmm7,%xmm15,%xmm8
	vpsrldq	$4,%xmm8,%xmm8
	vpclmulqdq	$0x10,%xmm7,%xmm15,%xmm14
	vpslldq	$4,%xmm14,%xmm14
	vpternlogq	$0x96,%xmm1,%xmm8,%xmm14

	jmp	.L_CALC_AAD_done_uyhascjAseynrmu
.L_AAD_blocks_12_uyhascjAseynrmu:
	subq	$1024,%r12
	kmovq	(%r12),%k1
	vmovdqu8	0(%r10),%zmm11
	vmovdqu8	64(%r10),%zmm3
	vmovdqu8	128(%r10),%zmm4{%k1}{z}
	vpshufb	%zmm16,%zmm11,%zmm11
	vpshufb	%zmm16,%zmm3,%zmm3
	vpshufb	%zmm16,%zmm4,%zmm4
	vpxorq	%zmm14,%zmm11,%zmm11
	vmovdqu64	160(%rdi),%zmm15
	vpclmulqdq	$0x11,%zmm15,%zmm11,%zmm1
	vpclmulqdq	$0x00,%zmm15,%zmm11,%zmm6
	vpclmulqdq	$0x01,%zmm15,%zmm11,%zmm7
	vpclmulqdq	$0x10,%zmm15,%zmm11,%zmm8
	vmovdqu64	224(%rdi),%zmm15
	vpclmulqdq	$0x11,%zmm15,%zmm3,%zmm9
	vpclmulqdq	$0x00,%zmm15,%zmm3,%zmm10
	vpclmulqdq	$0x01,%zmm15,%zmm3,%zmm12
	vpclmulqdq	$0x10,%zmm15,%zmm3,%zmm13
	vmovdqu64	288(%rdi),%zmm15
	vpclmulqdq	$0x11,%zmm15,%zmm4,%zmm11
	vpclmulqdq	$0x00,%zmm15,%zmm4,%zmm3
	vpternlogq	$0x96,%zmm1,%zmm11,%zmm9
	vpternlogq	$0x96,%zmm6,%zmm3,%zmm10
	vpclmulqdq	$0x01,%zmm15,%zmm4,%zmm11
	vpclmulqdq	$0x10,%zmm15,%zmm4,%zmm3
	vpternlogq	$0x96,%zmm7,%zmm11,%zmm12
	vpternlogq	$0x96,%zmm8,%zmm3,%zmm13

	vpxorq	%zmm13,%zmm12,%zmm12
	vpsrldq	$8,%zmm12,%zmm7
	vpslldq	$8,%zmm12,%zmm8
	vpxorq	%zmm7,%zmm9,%zmm1
	vpxorq	%zmm8,%zmm10,%zmm6
	vextracti64x4	$1,%zmm1,%ymm12
	vpxorq	%ymm12,%ymm1,%ymm1
	vextracti32x4	$1,%ymm1,%xmm12
	vpxorq	%xmm12,%xmm1,%xmm1
	vextracti64x4	$1,%zmm6,%ymm13
	vpxorq	%ymm13,%ymm6,%ymm6
	vextracti32x4	$1,%ymm6,%xmm13
	vpxorq	%xmm13,%xmm6,%xmm6
	vmovdqa64	POLY2(%rip),%xmm15


	vpclmulqdq	$0x01,%xmm6,%xmm15,%xmm7
	vpslldq	$8,%xmm7,%xmm7
	vpxorq	%xmm7,%xmm6,%xmm7


	vpclmulqdq	$0x00,%xmm7,%xmm15,%xmm8
	vpsrldq	$4,%xmm8,%xmm8
	vpclmulqdq	$0x10,%xmm7,%xmm15,%xmm14
	vpslldq	$4,%xmm14,%xmm14
	vpternlogq	$0x96,%xmm1,%xmm8,%xmm14

	jmp	.L_CALC_AAD_done_uyhascjAseynrmu
.L_AAD_blocks_11_uyhascjAseynrmu:
	subq	$1024,%r12
	kmovq	(%r12),%k1
	vmovdqu8	0(%r10),%zmm11
	vmovdqu8	64(%r10),%zmm3
	vmovdqu8	128(%r10),%zmm4{%k1}{z}
	vpshufb	%zmm16,%zmm11,%zmm11
	vpshufb	%zmm16,%zmm3,%zmm3
	vpshufb	%zmm16,%zmm4,%zmm4
	vpxorq	%zmm14,%zmm11,%zmm11
	vmovdqu64	176(%rdi),%zmm15
	vpclmulqdq	$0x11,%zmm15,%zmm11,%zmm1
	vpclmulqdq	$0x00,%zmm15,%zmm11,%zmm6
	vpclmulqdq	$0x01,%zmm15,%zmm11,%zmm7
	vpclmulqdq	$0x10,%zmm15,%zmm11,%zmm8
	vmovdqu64	240(%rdi),%zmm15
	vpclmulqdq	$0x11,%zmm15,%zmm3,%zmm9
	vpclmulqdq	$0x00,%zmm15,%zmm3,%zmm10
	vpclmulqdq	$0x01,%zmm15,%zmm3,%zmm12
	vpclmulqdq	$0x10,%zmm15,%zmm3,%zmm13
	vpxorq	%zmm9,%zmm1,%zmm9
	vpxorq	%zmm10,%zmm6,%zmm10
	vpxorq	%zmm12,%zmm7,%zmm12
	vpxorq	%zmm13,%zmm8,%zmm13
	vmovdqu64	304(%rdi),%ymm15
	vinserti64x2	$2,336(%rdi),%zmm15,%zmm15
	vpclmulqdq	$0x01,%zmm15,%zmm4,%zmm7
	vpclmulqdq	$0x10,%zmm15,%zmm4,%zmm8
	vpclmulqdq	$0x11,%zmm15,%zmm4,%zmm1
	vpclmulqdq	$0x00,%zmm15,%zmm4,%zmm6

	vpxorq	%zmm12,%zmm7,%zmm7
	vpxorq	%zmm13,%zmm8,%zmm8
	vpxorq	%zmm9,%zmm1,%zmm1
	vpxorq	%zmm10,%zmm6,%zmm6

	vpxorq	%zmm8,%zmm7,%zmm7
	vpsrldq	$8,%zmm7,%zmm12
	vpslldq	$8,%zmm7,%zmm13
	vpxorq	%zmm12,%zmm1,%zmm1
	vpxorq	%zmm13,%zmm6,%zmm6
	vextracti64x4	$1,%zmm1,%ymm12
	vpxorq	%ymm12,%ymm1,%ymm1
	vextracti32x4	$1,%ymm1,%xmm12
	vpxorq	%xmm12,%xmm1,%xmm1
	vextracti64x4	$1,%zmm6,%ymm13
	vpxorq	%ymm13,%ymm6,%ymm6
	vextracti32x4	$1,%ymm6,%xmm13
	vpxorq	%xmm13,%xmm6,%xmm6
	vmovdqa64	POLY2(%rip),%xmm15


	vpclmulqdq	$0x01,%xmm6,%xmm15,%xmm7
	vpslldq	$8,%xmm7,%xmm7
	vpxorq	%xmm7,%xmm6,%xmm7


	vpclmulqdq	$0x00,%xmm7,%xmm15,%xmm8
	vpsrldq	$4,%xmm8,%xmm8
	vpclmulqdq	$0x10,%xmm7,%xmm15,%xmm14
	vpslldq	$4,%xmm14,%xmm14
	vpternlogq	$0x96,%xmm1,%xmm8,%xmm14

	jmp	.L_CALC_AAD_done_uyhascjAseynrmu
.L_AAD_blocks_10_uyhascjAseynrmu:
	subq	$1024,%r12
	kmovq	(%r12),%k1
	vmovdqu8	0(%r10),%zmm11
	vmovdqu8	64(%r10),%zmm3
	vmovdqu8	128(%r10),%ymm4{%k1}{z}
	vpshufb	%zmm16,%zmm11,%zmm11
	vpshufb	%zmm16,%zmm3,%zmm3
	vpshufb	%ymm16,%ymm4,%ymm4
	vpxorq	%zmm14,%zmm11,%zmm11
	vmovdqu64	192(%rdi),%zmm15
	vpclmulqdq	$0x11,%zmm15,%zmm11,%zmm1
	vpclmulqdq	$0x00,%zmm15,%zmm11,%zmm6
	vpclmulqdq	$0x01,%zmm15,%zmm11,%zmm7
	vpclmulqdq	$0x10,%zmm15,%zmm11,%zmm8
	vmovdqu64	256(%rdi),%zmm15
	vpclmulqdq	$0x11,%zmm15,%zmm3,%zmm9
	vpclmulqdq	$0x00,%zmm15,%zmm3,%zmm10
	vpclmulqdq	$0x01,%zmm15,%zmm3,%zmm12
	vpclmulqdq	$0x10,%zmm15,%zmm3,%zmm13
	vpxorq	%zmm9,%zmm1,%zmm9
	vpxorq	%zmm10,%zmm6,%zmm10
	vpxorq	%zmm12,%zmm7,%zmm12
	vpxorq	%zmm13,%zmm8,%zmm13
	vmovdqu64	320(%rdi),%ymm15
	vpclmulqdq	$0x01,%ymm15,%ymm4,%ymm7
	vpclmulqdq	$0x10,%ymm15,%ymm4,%ymm8
	vpclmulqdq	$0x11,%ymm15,%ymm4,%ymm1
	vpclmulqdq	$0x00,%ymm15,%ymm4,%ymm6

	vpxorq	%zmm12,%zmm7,%zmm7
	vpxorq	%zmm13,%zmm8,%zmm8
	vpxorq	%zmm9,%zmm1,%zmm1
	vpxorq	%zmm10,%zmm6,%zmm6

	vpxorq	%zmm8,%zmm7,%zmm7
	vpsrldq	$8,%zmm7,%zmm12
	vpslldq	$8,%zmm7,%zmm13
	vpxorq	%zmm12,%zmm1,%zmm1
	vpxorq	%zmm13,%zmm6,%zmm6
	vextracti64x4	$1,%zmm1,%ymm12
	vpxorq	%ymm12,%ymm1,%ymm1
	vextracti32x4	$1,%ymm1,%xmm12
	vpxorq	%xmm12,%xmm1,%xmm1
	vextracti64x4	$1,%zmm6,%ymm13
	vpxorq	%ymm13,%ymm6,%ymm6
	vextracti32x4	$1,%ymm6,%xmm13
	vpxorq	%xmm13,%xmm6,%xmm6
	vmovdqa64	POLY2(%rip),%xmm15


	vpclmulqdq	$0x01,%xmm6,%xmm15,%xmm7
	vpslldq	$8,%xmm7,%xmm7
	vpxorq	%xmm7,%xmm6,%xmm7


	vpclmulqdq	$0x00,%xmm7,%xmm15,%xmm8
	vpsrldq	$4,%xmm8,%xmm8
	vpclmulqdq	$0x10,%xmm7,%xmm15,%xmm14
	vpslldq	$4,%xmm14,%xmm14
	vpternlogq	$0x96,%xmm1,%xmm8,%xmm14

	jmp	.L_CALC_AAD_done_uyhascjAseynrmu
.L_AAD_blocks_9_uyhascjAseynrmu:
	subq	$1024,%r12
	kmovq	(%r12),%k1
	vmovdqu8	0(%r10),%zmm11
	vmovdqu8	64(%r10),%zmm3
	vmovdqu8	128(%r10),%xmm4{%k1}{z}
	vpshufb	%zmm16,%zmm11,%zmm11
	vpshufb	%zmm16,%zmm3,%zmm3
	vpshufb	%xmm16,%xmm4,%xmm4
	vpxorq	%zmm14,%zmm11,%zmm11
	vmovdqu64	208(%rdi),%zmm15
	vpclmulqdq	$0x11,%zmm15,%zmm11,%zmm1
	vpclmulqdq	$0x00,%zmm15,%zmm11,%zmm6
	vpclmulqdq	$0x01,%zmm15,%zmm11,%zmm7
	vpclmulqdq	$0x10,%zmm15,%zmm11,%zmm8
	vmovdqu64	272(%rdi),%zmm15
	vpclmulqdq	$0x11,%zmm15,%zmm3,%zmm9
	vpclmulqdq	$0x00,%zmm15,%zmm3,%zmm10
	vpclmulqdq	$0x01,%zmm15,%zmm3,%zmm12
	vpclmulqdq	$0x10,%zmm15,%zmm3,%zmm13
	vpxorq	%zmm9,%zmm1,%zmm9
	vpxorq	%zmm10,%zmm6,%zmm10
	vpxorq	%zmm12,%zmm7,%zmm12
	vpxorq	%zmm13,%zmm8,%zmm13
	vmovdqu64	336(%rdi),%xmm15
	vpclmulqdq	$0x01,%xmm15,%xmm4,%xmm7
	vpclmulqdq	$0x10,%xmm15,%xmm4,%xmm8
	vpclmulqdq	$0x11,%xmm15,%xmm4,%xmm1
	vpclmulqdq	$0x00,%xmm15,%xmm4,%xmm6

	vpxorq	%zmm12,%zmm7,%zmm7
	vpxorq	%zmm13,%zmm8,%zmm8
	vpxorq	%zmm9,%zmm1,%zmm1
	vpxorq	%zmm10,%zmm6,%zmm6

	vpxorq	%zmm8,%zmm7,%zmm7
	vpsrldq	$8,%zmm7,%zmm12
	vpslldq	$8,%zmm7,%zmm13
	vpxorq	%zmm12,%zmm1,%zmm1
	vpxorq	%zmm13,%zmm6,%zmm6
	vextracti64x4	$1,%zmm1,%ymm12
	vpxorq	%ymm12,%ymm1,%ymm1
	vextracti32x4	$1,%ymm1,%xmm12
	vpxorq	%xmm12,%xmm1,%xmm1
	vextracti64x4	$1,%zmm6,%ymm13
	vpxorq	%ymm13,%ymm6,%ymm6
	vextracti32x4	$1,%ymm6,%xmm13
	vpxorq	%xmm13,%xmm6,%xmm6
	vmovdqa64	POLY2(%rip),%xmm15


	vpclmulqdq	$0x01,%xmm6,%xmm15,%xmm7
	vpslldq	$8,%xmm7,%xmm7
	vpxorq	%xmm7,%xmm6,%xmm7


	vpclmulqdq	$0x00,%xmm7,%xmm15,%xmm8
	vpsrldq	$4,%xmm8,%xmm8
	vpclmulqdq	$0x10,%xmm7,%xmm15,%xmm14
	vpslldq	$4,%xmm14,%xmm14
	vpternlogq	$0x96,%xmm1,%xmm8,%xmm14

	jmp	.L_CALC_AAD_done_uyhascjAseynrmu
.L_AAD_blocks_8_uyhascjAseynrmu:
	subq	$512,%r12
	kmovq	(%r12),%k1
	vmovdqu8	0(%r10),%zmm11
	vmovdqu8	64(%r10),%zmm3{%k1}{z}
	vpshufb	%zmm16,%zmm11,%zmm11
	vpshufb	%zmm16,%zmm3,%zmm3
	vpxorq	%zmm14,%zmm11,%zmm11
	vmovdqu64	224(%rdi),%zmm15
	vpclmulqdq	$0x11,%zmm15,%zmm11,%zmm1
	vpclmulqdq	$0x00,%zmm15,%zmm11,%zmm6
	vpclmulqdq	$0x01,%zmm15,%zmm11,%zmm7
	vpclmulqdq	$0x10,%zmm15,%zmm11,%zmm8
	vmovdqu64	288(%rdi),%zmm15
	vpclmulqdq	$0x11,%zmm15,%zmm3,%zmm9
	vpclmulqdq	$0x00,%zmm15,%zmm3,%zmm10
	vpclmulqdq	$0x01,%zmm15,%zmm3,%zmm12
	vpclmulqdq	$0x10,%zmm15,%zmm3,%zmm13
	vpxorq	%zmm9,%zmm1,%zmm9
	vpxorq	%zmm10,%zmm6,%zmm10
	vpxorq	%zmm12,%zmm7,%zmm12
	vpxorq	%zmm13,%zmm8,%zmm13

	vpxorq	%zmm13,%zmm12,%zmm12
	vpsrldq	$8,%zmm12,%zmm7
	vpslldq	$8,%zmm12,%zmm8
	vpxorq	%zmm7,%zmm9,%zmm1
	vpxorq	%zmm8,%zmm10,%zmm6
	vextracti64x4	$1,%zmm1,%ymm12
	vpxorq	%ymm12,%ymm1,%ymm1
	vextracti32x4	$1,%ymm1,%xmm12
	vpxorq	%xmm12,%xmm1,%xmm1
	vextracti64x4	$1,%zmm6,%ymm13
	vpxorq	%ymm13,%ymm6,%ymm6
	vextracti32x4	$1,%ymm6,%xmm13
	vpxorq	%xmm13,%xmm6,%xmm6
	vmovdqa64	POLY2(%rip),%xmm15


	vpclmulqdq	$0x01,%xmm6,%xmm15,%xmm7
	vpslldq	$8,%xmm7,%xmm7
	vpxorq	%xmm7,%xmm6,%xmm7


	vpclmulqdq	$0x00,%xmm7,%xmm15,%xmm8
	vpsrldq	$4,%xmm8,%xmm8
	vpclmulqdq	$0x10,%xmm7,%xmm15,%xmm14
	vpslldq	$4,%xmm14,%xmm14
	vpternlogq	$0x96,%xmm1,%xmm8,%xmm14

	jmp	.L_CALC_AAD_done_uyhascjAseynrmu
.L_AAD_blocks_7_uyhascjAseynrmu:
	subq	$512,%r12
	kmovq	(%r12),%k1
	vmovdqu8	0(%r10),%zmm11
	vmovdqu8	64(%r10),%zmm3{%k1}{z}
	vpshufb	%zmm16,%zmm11,%zmm11
	vpshufb	%zmm16,%zmm3,%zmm3
	vpxorq	%zmm14,%zmm11,%zmm11
	vmovdqu64	240(%rdi),%zmm15
	vpclmulqdq	$0x11,%zmm15,%zmm11,%zmm9
	vpclmulqdq	$0x00,%zmm15,%zmm11,%zmm10
	vpclmulqdq	$0x01,%zmm15,%zmm11,%zmm12
	vpclmulqdq	$0x10,%zmm15,%zmm11,%zmm13
	vmovdqu64	304(%rdi),%ymm15
	vinserti64x2	$2,336(%rdi),%zmm15,%zmm15
	vpclmulqdq	$0x01,%zmm15,%zmm3,%zmm7
	vpclmulqdq	$0x10,%zmm15,%zmm3,%zmm8
	vpclmulqdq	$0x11,%zmm15,%zmm3,%zmm1
	vpclmulqdq	$0x00,%zmm15,%zmm3,%zmm6

	vpxorq	%zmm12,%zmm7,%zmm7
	vpxorq	%zmm13,%zmm8,%zmm8
	vpxorq	%zmm9,%zmm1,%zmm1
	vpxorq	%zmm10,%zmm6,%zmm6

	vpxorq	%zmm8,%zmm7,%zmm7
	vpsrldq	$8,%zmm7,%zmm12
	vpslldq	$8,%zmm7,%zmm13
	vpxorq	%zmm12,%zmm1,%zmm1
	vpxorq	%zmm13,%zmm6,%zmm6
	vextracti64x4	$1,%zmm1,%ymm12
	vpxorq	%ymm12,%ymm1,%ymm1
	vextracti32x4	$1,%ymm1,%xmm12
	vpxorq	%xmm12,%xmm1,%xmm1
	vextracti64x4	$1,%zmm6,%ymm13
	vpxorq	%ymm13,%ymm6,%ymm6
	vextracti32x4	$1,%ymm6,%xmm13
	vpxorq	%xmm13,%xmm6,%xmm6
	vmovdqa64	POLY2(%rip),%xmm15


	vpclmulqdq	$0x01,%xmm6,%xmm15,%xmm7
	vpslldq	$8,%xmm7,%xmm7
	vpxorq	%xmm7,%xmm6,%xmm7


	vpclmulqdq	$0x00,%xmm7,%xmm15,%xmm8
	vpsrldq	$4,%xmm8,%xmm8
	vpclmulqdq	$0x10,%xmm7,%xmm15,%xmm14
	vpslldq	$4,%xmm14,%xmm14
	vpternlogq	$0x96,%xmm1,%xmm8,%xmm14

	jmp	.L_CALC_AAD_done_uyhascjAseynrmu
.L_AAD_blocks_6_uyhascjAseynrmu:
	subq	$512,%r12
	kmovq	(%r12),%k1
	vmovdqu8	0(%r10),%zmm11
	vmovdqu8	64(%r10),%ymm3{%k1}{z}
	vpshufb	%zmm16,%zmm11,%zmm11
	vpshufb	%ymm16,%ymm3,%ymm3
	vpxorq	%zmm14,%zmm11,%zmm11
	vmovdqu64	256(%rdi),%zmm15
	vpclmulqdq	$0x11,%zmm15,%zmm11,%zmm9
	vpclmulqdq	$0x00,%zmm15,%zmm11,%zmm10
	vpclmulqdq	$0x01,%zmm15,%zmm11,%zmm12
	vpclmulqdq	$0x10,%zmm15,%zmm11,%zmm13
	vmovdqu64	320(%rdi),%ymm15
	vpclmulqdq	$0x01,%ymm15,%ymm3,%ymm7
	vpclmulqdq	$0x10,%ymm15,%ymm3,%ymm8
	vpclmulqdq	$0x11,%ymm15,%ymm3,%ymm1
	vpclmulqdq	$0x00,%ymm15,%ymm3,%ymm6

	vpxorq	%zmm12,%zmm7,%zmm7
	vpxorq	%zmm13,%zmm8,%zmm8
	vpxorq	%zmm9,%zmm1,%zmm1
	vpxorq	%zmm10,%zmm6,%zmm6

	vpxorq	%zmm8,%zmm7,%zmm7
	vpsrldq	$8,%zmm7,%zmm12
	vpslldq	$8,%zmm7,%zmm13
	vpxorq	%zmm12,%zmm1,%zmm1
	vpxorq	%zmm13,%zmm6,%zmm6
	vextracti64x4	$1,%zmm1,%ymm12
	vpxorq	%ymm12,%ymm1,%ymm1
	vextracti32x4	$1,%ymm1,%xmm12
	vpxorq	%xmm12,%xmm1,%xmm1
	vextracti64x4	$1,%zmm6,%ymm13
	vpxorq	%ymm13,%ymm6,%ymm6
	vextracti32x4	$1,%ymm6,%xmm13
	vpxorq	%xmm13,%xmm6,%xmm6
	vmovdqa64	POLY2(%rip),%xmm15


	vpclmulqdq	$0x01,%xmm6,%xmm15,%xmm7
	vpslldq	$8,%xmm7,%xmm7
	vpxorq	%xmm7,%xmm6,%xmm7


	vpclmulqdq	$0x00,%xmm7,%xmm15,%xmm8
	vpsrldq	$4,%xmm8,%xmm8
	vpclmulqdq	$0x10,%xmm7,%xmm15,%xmm14
	vpslldq	$4,%xmm14,%xmm14
	vpternlogq	$0x96,%xmm1,%xmm8,%xmm14

	jmp	.L_CALC_AAD_done_uyhascjAseynrmu
.L_AAD_blocks_5_uyhascjAseynrmu:
	subq	$512,%r12
	kmovq	(%r12),%k1
	vmovdqu8	0(%r10),%zmm11
	vmovdqu8	64(%r10),%xmm3{%k1}{z}
	vpshufb	%zmm16,%zmm11,%zmm11
	vpshufb	%xmm16,%xmm3,%xmm3
	vpxorq	%zmm14,%zmm11,%zmm11
	vmovdqu64	272(%rdi),%zmm15
	vpclmulqdq	$0x11,%zmm15,%zmm11,%zmm9
	vpclmulqdq	$0x00,%zmm15,%zmm11,%zmm10
	vpclmulqdq	$0x01,%zmm15,%zmm11,%zmm12
	vpclmulqdq	$0x10,%zmm15,%zmm11,%zmm13
	vmovdqu64	336(%rdi),%xmm15
	vpclmulqdq	$0x01,%xmm15,%xmm3,%xmm7
	vpclmulqdq	$0x10,%xmm15,%xmm3,%xmm8
	vpclmulqdq	$0x11,%xmm15,%xmm3,%xmm1
	vpclmulqdq	$0x00,%xmm15,%xmm3,%xmm6

	vpxorq	%zmm12,%zmm7,%zmm7
	vpxorq	%zmm13,%zmm8,%zmm8
	vpxorq	%zmm9,%zmm1,%zmm1
	vpxorq	%zmm10,%zmm6,%zmm6

	vpxorq	%zmm8,%zmm7,%zmm7
	vpsrldq	$8,%zmm7,%zmm12
	vpslldq	$8,%zmm7,%zmm13
	vpxorq	%zmm12,%zmm1,%zmm1
	vpxorq	%zmm13,%zmm6,%zmm6
	vextracti64x4	$1,%zmm1,%ymm12
	vpxorq	%ymm12,%ymm1,%ymm1
	vextracti32x4	$1,%ymm1,%xmm12
	vpxorq	%xmm12,%xmm1,%xmm1
	vextracti64x4	$1,%zmm6,%ymm13
	vpxorq	%ymm13,%ymm6,%ymm6
	vextracti32x4	$1,%ymm6,%xmm13
	vpxorq	%xmm13,%xmm6,%xmm6
	vmovdqa64	POLY2(%rip),%xmm15


	vpclmulqdq	$0x01,%xmm6,%xmm15,%xmm7
	vpslldq	$8,%xmm7,%xmm7
	vpxorq	%xmm7,%xmm6,%xmm7


	vpclmulqdq	$0x00,%xmm7,%xmm15,%xmm8
	vpsrldq	$4,%xmm8,%xmm8
	vpclmulqdq	$0x10,%xmm7,%xmm15,%xmm14
	vpslldq	$4,%xmm14,%xmm14
	vpternlogq	$0x96,%xmm1,%xmm8,%xmm14

	jmp	.L_CALC_AAD_done_uyhascjAseynrmu
.L_AAD_blocks_4_uyhascjAseynrmu:
	kmovq	(%r12),%k1
	vmovdqu8	0(%r10),%zmm11{%k1}{z}
	vpshufb	%zmm16,%zmm11,%zmm11
	vpxorq	%zmm14,%zmm11,%zmm11
	vmovdqu64	288(%rdi),%zmm15
	vpclmulqdq	$0x11,%zmm15,%zmm11,%zmm9
	vpclmulqdq	$0x00,%zmm15,%zmm11,%zmm10
	vpclmulqdq	$0x01,%zmm15,%zmm11,%zmm12
	vpclmulqdq	$0x10,%zmm15,%zmm11,%zmm13

	vpxorq	%zmm13,%zmm12,%zmm12
	vpsrldq	$8,%zmm12,%zmm7
	vpslldq	$8,%zmm12,%zmm8
	vpxorq	%zmm7,%zmm9,%zmm1
	vpxorq	%zmm8,%zmm10,%zmm6
	vextracti64x4	$1,%zmm1,%ymm12
	vpxorq	%ymm12,%ymm1,%ymm1
	vextracti32x4	$1,%ymm1,%xmm12
	vpxorq	%xmm12,%xmm1,%xmm1
	vextracti64x4	$1,%zmm6,%ymm13
	vpxorq	%ymm13,%ymm6,%ymm6
	vextracti32x4	$1,%ymm6,%xmm13
	vpxorq	%xmm13,%xmm6,%xmm6
	vmovdqa64	POLY2(%rip),%xmm15


	vpclmulqdq	$0x01,%xmm6,%xmm15,%xmm7
	vpslldq	$8,%xmm7,%xmm7
	vpxorq	%xmm7,%xmm6,%xmm7


	vpclmulqdq	$0x00,%xmm7,%xmm15,%xmm8
	vpsrldq	$4,%xmm8,%xmm8
	vpclmulqdq	$0x10,%xmm7,%xmm15,%xmm14
	vpslldq	$4,%xmm14,%xmm14
	vpternlogq	$0x96,%xmm1,%xmm8,%xmm14

	jmp	.L_CALC_AAD_done_uyhascjAseynrmu
.L_AAD_blocks_3_uyhascjAseynrmu:
	kmovq	(%r12),%k1
	vmovdqu8	0(%r10),%zmm11{%k1}{z}
	vpshufb	%zmm16,%zmm11,%zmm11
	vpxorq	%zmm14,%zmm11,%zmm11
	vmovdqu64	304(%rdi),%ymm15
	vinserti64x2	$2,336(%rdi),%zmm15,%zmm15
	vpclmulqdq	$0x01,%zmm15,%zmm11,%zmm7
	vpclmulqdq	$0x10,%zmm15,%zmm11,%zmm8
	vpclmulqdq	$0x11,%zmm15,%zmm11,%zmm1
	vpclmulqdq	$0x00,%zmm15,%zmm11,%zmm6

	vpxorq	%zmm8,%zmm7,%zmm7
	vpsrldq	$8,%zmm7,%zmm12
	vpslldq	$8,%zmm7,%zmm13
	vpxorq	%zmm12,%zmm1,%zmm1
	vpxorq	%zmm13,%zmm6,%zmm6
	vextracti64x4	$1,%zmm1,%ymm12
	vpxorq	%ymm12,%ymm1,%ymm1
	vextracti32x4	$1,%ymm1,%xmm12
	vpxorq	%xmm12,%xmm1,%xmm1
	vextracti64x4	$1,%zmm6,%ymm13
	vpxorq	%ymm13,%ymm6,%ymm6
	vextracti32x4	$1,%ymm6,%xmm13
	vpxorq	%xmm13,%xmm6,%xmm6
	vmovdqa64	POLY2(%rip),%xmm15


	vpclmulqdq	$0x01,%xmm6,%xmm15,%xmm7
	vpslldq	$8,%xmm7,%xmm7
	vpxorq	%xmm7,%xmm6,%xmm7


	vpclmulqdq	$0x00,%xmm7,%xmm15,%xmm8
	vpsrldq	$4,%xmm8,%xmm8
	vpclmulqdq	$0x10,%xmm7,%xmm15,%xmm14
	vpslldq	$4,%xmm14,%xmm14
	vpternlogq	$0x96,%xmm1,%xmm8,%xmm14

	jmp	.L_CALC_AAD_done_uyhascjAseynrmu
.L_AAD_blocks_2_uyhascjAseynrmu:
	kmovq	(%r12),%k1
	vmovdqu8	0(%r10),%ymm11{%k1}{z}
	vpshufb	%ymm16,%ymm11,%ymm11
	vpxorq	%zmm14,%zmm11,%zmm11
	vmovdqu64	320(%rdi),%ymm15
	vpclmulqdq	$0x01,%ymm15,%ymm11,%ymm7
	vpclmulqdq	$0x10,%ymm15,%ymm11,%ymm8
	vpclmulqdq	$0x11,%ymm15,%ymm11,%ymm1
	vpclmulqdq	$0x00,%ymm15,%ymm11,%ymm6

	vpxorq	%zmm8,%zmm7,%zmm7
	vpsrldq	$8,%zmm7,%zmm12
	vpslldq	$8,%zmm7,%zmm13
	vpxorq	%zmm12,%zmm1,%zmm1
	vpxorq	%zmm13,%zmm6,%zmm6
	vextracti64x4	$1,%zmm1,%ymm12
	vpxorq	%ymm12,%ymm1,%ymm1
	vextracti32x4	$1,%ymm1,%xmm12
	vpxorq	%xmm12,%xmm1,%xmm1
	vextracti64x4	$1,%zmm6,%ymm13
	vpxorq	%ymm13,%ymm6,%ymm6
	vextracti32x4	$1,%ymm6,%xmm13
	vpxorq	%xmm13,%xmm6,%xmm6
	vmovdqa64	POLY2(%rip),%xmm15


	vpclmulqdq	$0x01,%xmm6,%xmm15,%xmm7
	vpslldq	$8,%xmm7,%xmm7
	vpxorq	%xmm7,%xmm6,%xmm7


	vpclmulqdq	$0x00,%xmm7,%xmm15,%xmm8
	vpsrldq	$4,%xmm8,%xmm8
	vpclmulqdq	$0x10,%xmm7,%xmm15,%xmm14
	vpslldq	$4,%xmm14,%xmm14
	vpternlogq	$0x96,%xmm1,%xmm8,%xmm14

	jmp	.L_CALC_AAD_done_uyhascjAseynrmu
.L_AAD_blocks_1_uyhascjAseynrmu:
	kmovq	(%r12),%k1
	vmovdqu8	0(%r10),%xmm11{%k1}{z}
	vpshufb	%xmm16,%xmm11,%xmm11
	vpxorq	%zmm14,%zmm11,%zmm11
	vmovdqu64	336(%rdi),%xmm15
	vpclmulqdq	$0x01,%xmm15,%xmm11,%xmm7
	vpclmulqdq	$0x10,%xmm15,%xmm11,%xmm8
	vpclmulqdq	$0x11,%xmm15,%xmm11,%xmm1
	vpclmulqdq	$0x00,%xmm15,%xmm11,%xmm6

	vpxorq	%zmm8,%zmm7,%zmm7
	vpsrldq	$8,%zmm7,%zmm12
	vpslldq	$8,%zmm7,%zmm13
	vpxorq	%zmm12,%zmm1,%zmm1
	vpxorq	%zmm13,%zmm6,%zmm6
	vextracti64x4	$1,%zmm1,%ymm12
	vpxorq	%ymm12,%ymm1,%ymm1
	vextracti32x4	$1,%ymm1,%xmm12
	vpxorq	%xmm12,%xmm1,%xmm1
	vextracti64x4	$1,%zmm6,%ymm13
	vpxorq	%ymm13,%ymm6,%ymm6
	vextracti32x4	$1,%ymm6,%xmm13
	vpxorq	%xmm13,%xmm6,%xmm6
	vmovdqa64	POLY2(%rip),%xmm15


	vpclmulqdq	$0x01,%xmm6,%xmm15,%xmm7
	vpslldq	$8,%xmm7,%xmm7
	vpxorq	%xmm7,%xmm6,%xmm7


	vpclmulqdq	$0x00,%xmm7,%xmm15,%xmm8
	vpsrldq	$4,%xmm8,%xmm8
	vpclmulqdq	$0x10,%xmm7,%xmm15,%xmm14
	vpslldq	$4,%xmm14,%xmm14
	vpternlogq	$0x96,%xmm1,%xmm8,%xmm14

.L_CALC_AAD_done_uyhascjAseynrmu:
	vmovdqu64	%xmm14,64(%rdi)
	cmpq	$256,%rdx
	jbe	.Lskip_hkeys_cleanup_pgnokdkFijAyAou
	vpxor	%xmm0,%xmm0,%xmm0
	vmovdqa64	%zmm0,0(%rsp)
	vmovdqa64	%zmm0,64(%rsp)
	vmovdqa64	%zmm0,128(%rsp)
	vmovdqa64	%zmm0,192(%rsp)
	vmovdqa64	%zmm0,256(%rsp)
	vmovdqa64	%zmm0,320(%rsp)
	vmovdqa64	%zmm0,384(%rsp)
	vmovdqa64	%zmm0,448(%rsp)
	vmovdqa64	%zmm0,512(%rsp)
	vmovdqa64	%zmm0,576(%rsp)
	vmovdqa64	%zmm0,640(%rsp)
	vmovdqa64	%zmm0,704(%rsp)
.Lskip_hkeys_cleanup_pgnokdkFijAyAou:
	vzeroupper
	leaq	(%rbp),%rsp
.cfi_def_cfa_register	%rsp
	popq	%r15
.cfi_adjust_cfa_offset	-8
.cfi_restore	%r15
	popq	%r14
.cfi_adjust_cfa_offset	-8
.cfi_restore	%r14
	popq	%r13
.cfi_adjust_cfa_offset	-8
.cfi_restore	%r13
	popq	%r12
.cfi_adjust_cfa_offset	-8
.cfi_restore	%r12
	popq	%rbp
.cfi_adjust_cfa_offset	-8
.cfi_restore	%rbp
	popq	%rbx
.cfi_adjust_cfa_offset	-8
.cfi_restore	%rbx
.Lexit_update_aad:
	.byte	0xf3,0xc3
.Lghash_seh_end:
.cfi_endproc	
.size	ossl_aes_gcm_update_aad_avx512, .-ossl_aes_gcm_update_aad_avx512
.globl	ossl_aes_gcm_encrypt_avx512
.type	ossl_aes_gcm_encrypt_avx512,@function
.align	32
ossl_aes_gcm_encrypt_avx512:
.cfi_startproc	
.Lencrypt_seh_begin:
.byte	243,15,30,250
	pushq	%rbx
.cfi_adjust_cfa_offset	8
.cfi_offset	%rbx,-16
.Lencrypt_seh_push_rbx:
	pushq	%rbp
.cfi_adjust_cfa_offset	8
.cfi_offset	%rbp,-24
.Lencrypt_seh_push_rbp:
	pushq	%r12
.cfi_adjust_cfa_offset	8
.cfi_offset	%r12,-32
.Lencrypt_seh_push_r12:
	pushq	%r13
.cfi_adjust_cfa_offset	8
.cfi_offset	%r13,-40
.Lencrypt_seh_push_r13:
	pushq	%r14
.cfi_adjust_cfa_offset	8
.cfi_offset	%r14,-48
.Lencrypt_seh_push_r14:
	pushq	%r15
.cfi_adjust_cfa_offset	8
.cfi_offset	%r15,-56
.Lencrypt_seh_push_r15:










	leaq	0(%rsp),%rbp
.cfi_def_cfa_register	%rbp
.Lencrypt_seh_setfp:

.Lencrypt_seh_prolog_end:
	subq	$1588,%rsp
	andq	$(-64),%rsp


	movl	240(%rdi),%eax
	cmpl	$9,%eax
	je	.Laes_gcm_encrypt_128_avx512
	cmpl	$11,%eax
	je	.Laes_gcm_encrypt_192_avx512
	cmpl	$13,%eax
	je	.Laes_gcm_encrypt_256_avx512
	xorl	%eax,%eax
	jmp	.Lexit_gcm_encrypt
.align	32
.Laes_gcm_encrypt_128_avx512:
	orq	%r8,%r8
	je	.L_enc_dec_done_GlwqCDtffnuucyn
	xorq	%r14,%r14
	vmovdqu64	64(%rsi),%xmm14

	movq	(%rdx),%r11
	orq	%r11,%r11
	je	.L_partial_block_done_eonlwqjgsxbgwtk
	movl	$16,%r10d
	leaq	byte_len_to_mask_table(%rip),%r12
	cmpq	%r10,%r8
	cmovcq	%r8,%r10
	kmovw	(%r12,%r10,2),%k1
	vmovdqu8	(%rcx),%xmm0{%k1}{z}

	vmovdqu64	16(%rsi),%xmm3
	vmovdqu64	336(%rsi),%xmm4



	leaq	SHIFT_MASK(%rip),%r12
	addq	%r11,%r12
	vmovdqu64	(%r12),%xmm5
	vpshufb	%xmm5,%xmm3,%xmm3
	vpxorq	%xmm0,%xmm3,%xmm3


	leaq	(%r8,%r11,1),%r13
	subq	$16,%r13
	jge	.L_no_extra_mask_eonlwqjgsxbgwtk
	subq	%r13,%r12
.L_no_extra_mask_eonlwqjgsxbgwtk:



	vmovdqu64	16(%r12),%xmm0
	vpand	%xmm0,%xmm3,%xmm3
	vpshufb	SHUF_MASK(%rip),%xmm3,%xmm3
	vpshufb	%xmm5,%xmm3,%xmm3
	vpxorq	%xmm3,%xmm14,%xmm14
	cmpq	$0,%r13
	jl	.L_partial_incomplete_eonlwqjgsxbgwtk

	vpclmulqdq	$0x11,%xmm4,%xmm14,%xmm7
	vpclmulqdq	$0x00,%xmm4,%xmm14,%xmm10
	vpclmulqdq	$0x01,%xmm4,%xmm14,%xmm11
	vpclmulqdq	$0x10,%xmm4,%xmm14,%xmm14
	vpxorq	%xmm11,%xmm14,%xmm14

	vpsrldq	$8,%xmm14,%xmm11
	vpslldq	$8,%xmm14,%xmm14
	vpxorq	%xmm11,%xmm7,%xmm7
	vpxorq	%xmm10,%xmm14,%xmm14



	vmovdqu64	POLY2(%rip),%xmm11

	vpclmulqdq	$0x01,%xmm14,%xmm11,%xmm10
	vpslldq	$8,%xmm10,%xmm10
	vpxorq	%xmm10,%xmm14,%xmm14



	vpclmulqdq	$0x00,%xmm14,%xmm11,%xmm10
	vpsrldq	$4,%xmm10,%xmm10
	vpclmulqdq	$0x10,%xmm14,%xmm11,%xmm14
	vpslldq	$4,%xmm14,%xmm14

	vpternlogq	$0x96,%xmm10,%xmm7,%xmm14

	movq	$0,(%rdx)

	movq	%r11,%r12
	movq	$16,%r11
	subq	%r12,%r11
	jmp	.L_enc_dec_done_eonlwqjgsxbgwtk

.L_partial_incomplete_eonlwqjgsxbgwtk:
	addq	%r8,(%rdx)
	movq	%r8,%r11

.L_enc_dec_done_eonlwqjgsxbgwtk:


	leaq	byte_len_to_mask_table(%rip),%r12
	kmovw	(%r12,%r11,2),%k1
	vmovdqu64	%xmm14,64(%rsi)

	vpshufb	SHUF_MASK(%rip),%xmm3,%xmm3
	vpshufb	%xmm5,%xmm3,%xmm3
	movq	%r9,%r12
	vmovdqu8	%xmm3,(%r12){%k1}
.L_partial_block_done_eonlwqjgsxbgwtk:
	vmovdqu64	0(%rsi),%xmm2
	subq	%r11,%r8
	je	.L_enc_dec_done_GlwqCDtffnuucyn
	cmpq	$256,%r8
	jbe	.L_message_below_equal_16_blocks_GlwqCDtffnuucyn

	vmovdqa64	SHUF_MASK(%rip),%zmm29
	vmovdqa64	ddq_addbe_4444(%rip),%zmm27
	vmovdqa64	ddq_addbe_1234(%rip),%zmm28






	vmovd	%xmm2,%r15d
	andl	$255,%r15d

	vshufi64x2	$0,%zmm2,%zmm2,%zmm2
	vpshufb	%zmm29,%zmm2,%zmm2



	cmpb	$240,%r15b
	jae	.L_next_16_overflow_jdwnEglyjolcalw
	vpaddd	%zmm28,%zmm2,%zmm7
	vpaddd	%zmm27,%zmm7,%zmm10
	vpaddd	%zmm27,%zmm10,%zmm11
	vpaddd	%zmm27,%zmm11,%zmm12
	jmp	.L_next_16_ok_jdwnEglyjolcalw
.L_next_16_overflow_jdwnEglyjolcalw:
	vpshufb	%zmm29,%zmm2,%zmm2
	vmovdqa64	ddq_add_4444(%rip),%zmm12
	vpaddd	ddq_add_1234(%rip),%zmm2,%zmm7
	vpaddd	%zmm12,%zmm7,%zmm10
	vpaddd	%zmm12,%zmm10,%zmm11
	vpaddd	%zmm12,%zmm11,%zmm12
	vpshufb	%zmm29,%zmm7,%zmm7
	vpshufb	%zmm29,%zmm10,%zmm10
	vpshufb	%zmm29,%zmm11,%zmm11
	vpshufb	%zmm29,%zmm12,%zmm12
.L_next_16_ok_jdwnEglyjolcalw:
	vshufi64x2	$255,%zmm12,%zmm12,%zmm2
	addb	$16,%r15b

	vmovdqu8	0(%rcx,%r11,1),%zmm0
	vmovdqu8	64(%rcx,%r11,1),%zmm3
	vmovdqu8	128(%rcx,%r11,1),%zmm4
	vmovdqu8	192(%rcx,%r11,1),%zmm5


	vbroadcastf64x2	0(%rdi),%zmm6
	vpxorq	%zmm6,%zmm7,%zmm7
	vpxorq	%zmm6,%zmm10,%zmm10
	vpxorq	%zmm6,%zmm11,%zmm11
	vpxorq	%zmm6,%zmm12,%zmm12
	vbroadcastf64x2	16(%rdi),%zmm6
	vaesenc	%zmm6,%zmm7,%zmm7
	vaesenc	%zmm6,%zmm10,%zmm10
	vaesenc	%zmm6,%zmm11,%zmm11
	vaesenc	%zmm6,%zmm12,%zmm12
	vbroadcastf64x2	32(%rdi),%zmm6
	vaesenc	%zmm6,%zmm7,%zmm7
	vaesenc	%zmm6,%zmm10,%zmm10
	vaesenc	%zmm6,%zmm11,%zmm11
	vaesenc	%zmm6,%zmm12,%zmm12
	vbroadcastf64x2	48(%rdi),%zmm6
	vaesenc	%zmm6,%zmm7,%zmm7
	vaesenc	%zmm6,%zmm10,%zmm10
	vaesenc	%zmm6,%zmm11,%zmm11
	vaesenc	%zmm6,%zmm12,%zmm12
	vbroadcastf64x2	64(%rdi),%zmm6
	vaesenc	%zmm6,%zmm7,%zmm7
	vaesenc	%zmm6,%zmm10,%zmm10
	vaesenc	%zmm6,%zmm11,%zmm11
	vaesenc	%zmm6,%zmm12,%zmm12
	vbroadcastf64x2	80(%rdi),%zmm6
	vaesenc	%zmm6,%zmm7,%zmm7
	vaesenc	%zmm6,%zmm10,%zmm10
	vaesenc	%zmm6,%zmm11,%zmm11
	vaesenc	%zmm6,%zmm12,%zmm12
	vbroadcastf64x2	96(%rdi),%zmm6
	vaesenc	%zmm6,%zmm7,%zmm7
	vaesenc	%zmm6,%zmm10,%zmm10
	vaesenc	%zmm6,%zmm11,%zmm11
	vaesenc	%zmm6,%zmm12,%zmm12
	vbroadcastf64x2	112(%rdi),%zmm6
	vaesenc	%zmm6,%zmm7,%zmm7
	vaesenc	%zmm6,%zmm10,%zmm10
	vaesenc	%zmm6,%zmm11,%zmm11
	vaesenc	%zmm6,%zmm12,%zmm12
	vbroadcastf64x2	128(%rdi),%zmm6
	vaesenc	%zmm6,%zmm7,%zmm7
	vaesenc	%zmm6,%zmm10,%zmm10
	vaesenc	%zmm6,%zmm11,%zmm11
	vaesenc	%zmm6,%zmm12,%zmm12
	vbroadcastf64x2	144(%rdi),%zmm6
	vaesenc	%zmm6,%zmm7,%zmm7
	vaesenc	%zmm6,%zmm10,%zmm10
	vaesenc	%zmm6,%zmm11,%zmm11
	vaesenc	%zmm6,%zmm12,%zmm12
	vbroadcastf64x2	160(%rdi),%zmm6
	vaesenclast	%zmm6,%zmm7,%zmm7
	vaesenclast	%zmm6,%zmm10,%zmm10
	vaesenclast	%zmm6,%zmm11,%zmm11
	vaesenclast	%zmm6,%zmm12,%zmm12


	vpxorq	%zmm0,%zmm7,%zmm7
	vpxorq	%zmm3,%zmm10,%zmm10
	vpxorq	%zmm4,%zmm11,%zmm11
	vpxorq	%zmm5,%zmm12,%zmm12


	movq	%r9,%r10
	vmovdqu8	%zmm7,0(%r10,%r11,1)
	vmovdqu8	%zmm10,64(%r10,%r11,1)
	vmovdqu8	%zmm11,128(%r10,%r11,1)
	vmovdqu8	%zmm12,192(%r10,%r11,1)

	vpshufb	%zmm29,%zmm7,%zmm7
	vpshufb	%zmm29,%zmm10,%zmm10
	vpshufb	%zmm29,%zmm11,%zmm11
	vpshufb	%zmm29,%zmm12,%zmm12
	vmovdqa64	%zmm7,768(%rsp)
	vmovdqa64	%zmm10,832(%rsp)
	vmovdqa64	%zmm11,896(%rsp)
	vmovdqa64	%zmm12,960(%rsp)
	testq	%r14,%r14
	jnz	.L_skip_hkeys_precomputation_eEgGoDtkworyrmA

	vmovdqu64	288(%rsi),%zmm0
	vmovdqu64	%zmm0,704(%rsp)

	vmovdqu64	224(%rsi),%zmm3
	vmovdqu64	%zmm3,640(%rsp)


	vshufi64x2	$0x00,%zmm3,%zmm3,%zmm3

	vmovdqu64	160(%rsi),%zmm4
	vmovdqu64	%zmm4,576(%rsp)

	vmovdqu64	96(%rsi),%zmm5
	vmovdqu64	%zmm5,512(%rsp)
.L_skip_hkeys_precomputation_eEgGoDtkworyrmA:
	cmpq	$512,%r8
	jb	.L_message_below_32_blocks_GlwqCDtffnuucyn



	cmpb	$240,%r15b
	jae	.L_next_16_overflow_lBfhhvxbqwcoblq
	vpaddd	%zmm28,%zmm2,%zmm7
	vpaddd	%zmm27,%zmm7,%zmm10
	vpaddd	%zmm27,%zmm10,%zmm11
	vpaddd	%zmm27,%zmm11,%zmm12
	jmp	.L_next_16_ok_lBfhhvxbqwcoblq
.L_next_16_overflow_lBfhhvxbqwcoblq:
	vpshufb	%zmm29,%zmm2,%zmm2
	vmovdqa64	ddq_add_4444(%rip),%zmm12
	vpaddd	ddq_add_1234(%rip),%zmm2,%zmm7
	vpaddd	%zmm12,%zmm7,%zmm10
	vpaddd	%zmm12,%zmm10,%zmm11
	vpaddd	%zmm12,%zmm11,%zmm12
	vpshufb	%zmm29,%zmm7,%zmm7
	vpshufb	%zmm29,%zmm10,%zmm10
	vpshufb	%zmm29,%zmm11,%zmm11
	vpshufb	%zmm29,%zmm12,%zmm12
.L_next_16_ok_lBfhhvxbqwcoblq:
	vshufi64x2	$255,%zmm12,%zmm12,%zmm2
	addb	$16,%r15b

	vmovdqu8	256(%rcx,%r11,1),%zmm0
	vmovdqu8	320(%rcx,%r11,1),%zmm3
	vmovdqu8	384(%rcx,%r11,1),%zmm4
	vmovdqu8	448(%rcx,%r11,1),%zmm5


	vbroadcastf64x2	0(%rdi),%zmm6
	vpxorq	%zmm6,%zmm7,%zmm7
	vpxorq	%zmm6,%zmm10,%zmm10
	vpxorq	%zmm6,%zmm11,%zmm11
	vpxorq	%zmm6,%zmm12,%zmm12
	vbroadcastf64x2	16(%rdi),%zmm6
	vaesenc	%zmm6,%zmm7,%zmm7
	vaesenc	%zmm6,%zmm10,%zmm10
	vaesenc	%zmm6,%zmm11,%zmm11
	vaesenc	%zmm6,%zmm12,%zmm12
	vbroadcastf64x2	32(%rdi),%zmm6
	vaesenc	%zmm6,%zmm7,%zmm7
	vaesenc	%zmm6,%zmm10,%zmm10
	vaesenc	%zmm6,%zmm11,%zmm11
	vaesenc	%zmm6,%zmm12,%zmm12
	vbroadcastf64x2	48(%rdi),%zmm6
	vaesenc	%zmm6,%zmm7,%zmm7
	vaesenc	%zmm6,%zmm10,%zmm10
	vaesenc	%zmm6,%zmm11,%zmm11
	vaesenc	%zmm6,%zmm12,%zmm12
	vbroadcastf64x2	64(%rdi),%zmm6
	vaesenc	%zmm6,%zmm7,%zmm7
	vaesenc	%zmm6,%zmm10,%zmm10
	vaesenc	%zmm6,%zmm11,%zmm11
	vaesenc	%zmm6,%zmm12,%zmm12
	vbroadcastf64x2	80(%rdi),%zmm6
	vaesenc	%zmm6,%zmm7,%zmm7
	vaesenc	%zmm6,%zmm10,%zmm10
	vaesenc	%zmm6,%zmm11,%zmm11
	vaesenc	%zmm6,%zmm12,%zmm12
	vbroadcastf64x2	96(%rdi),%zmm6
	vaesenc	%zmm6,%zmm7,%zmm7
	vaesenc	%zmm6,%zmm10,%zmm10
	vaesenc	%zmm6,%zmm11,%zmm11
	vaesenc	%zmm6,%zmm12,%zmm12
	vbroadcastf64x2	112(%rdi),%zmm6
	vaesenc	%zmm6,%zmm7,%zmm7
	vaesenc	%zmm6,%zmm10,%zmm10
	vaesenc	%zmm6,%zmm11,%zmm11
	vaesenc	%zmm6,%zmm12,%zmm12
	vbroadcastf64x2	128(%rdi),%zmm6
	vaesenc	%zmm6,%zmm7,%zmm7
	vaesenc	%zmm6,%zmm10,%zmm10
	vaesenc	%zmm6,%zmm11,%zmm11
	vaesenc	%zmm6,%zmm12,%zmm12
	vbroadcastf64x2	144(%rdi),%zmm6
	vaesenc	%zmm6,%zmm7,%zmm7
	vaesenc	%zmm6,%zmm10,%zmm10
	vaesenc	%zmm6,%zmm11,%zmm11
	vaesenc	%zmm6,%zmm12,%zmm12
	vbroadcastf64x2	160(%rdi),%zmm6
	vaesenclast	%zmm6,%zmm7,%zmm7
	vaesenclast	%zmm6,%zmm10,%zmm10
	vaesenclast	%zmm6,%zmm11,%zmm11
	vaesenclast	%zmm6,%zmm12,%zmm12


	vpxorq	%zmm0,%zmm7,%zmm7
	vpxorq	%zmm3,%zmm10,%zmm10
	vpxorq	%zmm4,%zmm11,%zmm11
	vpxorq	%zmm5,%zmm12,%zmm12


	movq	%r9,%r10
	vmovdqu8	%zmm7,256(%r10,%r11,1)
	vmovdqu8	%zmm10,320(%r10,%r11,1)
	vmovdqu8	%zmm11,384(%r10,%r11,1)
	vmovdqu8	%zmm12,448(%r10,%r11,1)

	vpshufb	%zmm29,%zmm7,%zmm7
	vpshufb	%zmm29,%zmm10,%zmm10
	vpshufb	%zmm29,%zmm11,%zmm11
	vpshufb	%zmm29,%zmm12,%zmm12
	vmovdqa64	%zmm7,1024(%rsp)
	vmovdqa64	%zmm10,1088(%rsp)
	vmovdqa64	%zmm11,1152(%rsp)
	vmovdqa64	%zmm12,1216(%rsp)
	testq	%r14,%r14
	jnz	.L_skip_hkeys_precomputation_umzBpgzjdFkAddx
	vmovdqu64	640(%rsp),%zmm3


	vshufi64x2	$0x00,%zmm3,%zmm3,%zmm3

	vmovdqu64	576(%rsp),%zmm4
	vmovdqu64	512(%rsp),%zmm5

	vpclmulqdq	$0x11,%zmm3,%zmm4,%zmm6
	vpclmulqdq	$0x00,%zmm3,%zmm4,%zmm7
	vpclmulqdq	$0x01,%zmm3,%zmm4,%zmm10
	vpclmulqdq	$0x10,%zmm3,%zmm4,%zmm4
	vpxorq	%zmm10,%zmm4,%zmm4

	vpsrldq	$8,%zmm4,%zmm10
	vpslldq	$8,%zmm4,%zmm4
	vpxorq	%zmm10,%zmm6,%zmm6
	vpxorq	%zmm7,%zmm4,%zmm4



	vmovdqu64	POLY2(%rip),%zmm10

	vpclmulqdq	$0x01,%zmm4,%zmm10,%zmm7
	vpslldq	$8,%zmm7,%zmm7
	vpxorq	%zmm7,%zmm4,%zmm4



	vpclmulqdq	$0x00,%zmm4,%zmm10,%zmm7
	vpsrldq	$4,%zmm7,%zmm7
	vpclmulqdq	$0x10,%zmm4,%zmm10,%zmm4
	vpslldq	$4,%zmm4,%zmm4

	vpternlogq	$0x96,%zmm7,%zmm6,%zmm4

	vmovdqu64	%zmm4,448(%rsp)

	vpclmulqdq	$0x11,%zmm3,%zmm5,%zmm6
	vpclmulqdq	$0x00,%zmm3,%zmm5,%zmm7
	vpclmulqdq	$0x01,%zmm3,%zmm5,%zmm10
	vpclmulqdq	$0x10,%zmm3,%zmm5,%zmm5
	vpxorq	%zmm10,%zmm5,%zmm5

	vpsrldq	$8,%zmm5,%zmm10
	vpslldq	$8,%zmm5,%zmm5
	vpxorq	%zmm10,%zmm6,%zmm6
	vpxorq	%zmm7,%zmm5,%zmm5



	vmovdqu64	POLY2(%rip),%zmm10

	vpclmulqdq	$0x01,%zmm5,%zmm10,%zmm7
	vpslldq	$8,%zmm7,%zmm7
	vpxorq	%zmm7,%zmm5,%zmm5



	vpclmulqdq	$0x00,%zmm5,%zmm10,%zmm7
	vpsrldq	$4,%zmm7,%zmm7
	vpclmulqdq	$0x10,%zmm5,%zmm10,%zmm5
	vpslldq	$4,%zmm5,%zmm5

	vpternlogq	$0x96,%zmm7,%zmm6,%zmm5

	vmovdqu64	%zmm5,384(%rsp)

	vpclmulqdq	$0x11,%zmm3,%zmm4,%zmm6
	vpclmulqdq	$0x00,%zmm3,%zmm4,%zmm7
	vpclmulqdq	$0x01,%zmm3,%zmm4,%zmm10
	vpclmulqdq	$0x10,%zmm3,%zmm4,%zmm4
	vpxorq	%zmm10,%zmm4,%zmm4

	vpsrldq	$8,%zmm4,%zmm10
	vpslldq	$8,%zmm4,%zmm4
	vpxorq	%zmm10,%zmm6,%zmm6
	vpxorq	%zmm7,%zmm4,%zmm4



	vmovdqu64	POLY2(%rip),%zmm10

	vpclmulqdq	$0x01,%zmm4,%zmm10,%zmm7
	vpslldq	$8,%zmm7,%zmm7
	vpxorq	%zmm7,%zmm4,%zmm4



	vpclmulqdq	$0x00,%zmm4,%zmm10,%zmm7
	vpsrldq	$4,%zmm7,%zmm7
	vpclmulqdq	$0x10,%zmm4,%zmm10,%zmm4
	vpslldq	$4,%zmm4,%zmm4

	vpternlogq	$0x96,%zmm7,%zmm6,%zmm4

	vmovdqu64	%zmm4,320(%rsp)

	vpclmulqdq	$0x11,%zmm3,%zmm5,%zmm6
	vpclmulqdq	$0x00,%zmm3,%zmm5,%zmm7
	vpclmulqdq	$0x01,%zmm3,%zmm5,%zmm10
	vpclmulqdq	$0x10,%zmm3,%zmm5,%zmm5
	vpxorq	%zmm10,%zmm5,%zmm5

	vpsrldq	$8,%zmm5,%zmm10
	vpslldq	$8,%zmm5,%zmm5
	vpxorq	%zmm10,%zmm6,%zmm6
	vpxorq	%zmm7,%zmm5,%zmm5



	vmovdqu64	POLY2(%rip),%zmm10

	vpclmulqdq	$0x01,%zmm5,%zmm10,%zmm7
	vpslldq	$8,%zmm7,%zmm7
	vpxorq	%zmm7,%zmm5,%zmm5



	vpclmulqdq	$0x00,%zmm5,%zmm10,%zmm7
	vpsrldq	$4,%zmm7,%zmm7
	vpclmulqdq	$0x10,%zmm5,%zmm10,%zmm5
	vpslldq	$4,%zmm5,%zmm5

	vpternlogq	$0x96,%zmm7,%zmm6,%zmm5

	vmovdqu64	%zmm5,256(%rsp)

	vpclmulqdq	$0x11,%zmm3,%zmm4,%zmm6
	vpclmulqdq	$0x00,%zmm3,%zmm4,%zmm7
	vpclmulqdq	$0x01,%zmm3,%zmm4,%zmm10
	vpclmulqdq	$0x10,%zmm3,%zmm4,%zmm4
	vpxorq	%zmm10,%zmm4,%zmm4

	vpsrldq	$8,%zmm4,%zmm10
	vpslldq	$8,%zmm4,%zmm4
	vpxorq	%zmm10,%zmm6,%zmm6
	vpxorq	%zmm7,%zmm4,%zmm4



	vmovdqu64	POLY2(%rip),%zmm10

	vpclmulqdq	$0x01,%zmm4,%zmm10,%zmm7
	vpslldq	$8,%zmm7,%zmm7
	vpxorq	%zmm7,%zmm4,%zmm4



	vpclmulqdq	$0x00,%zmm4,%zmm10,%zmm7
	vpsrldq	$4,%zmm7,%zmm7
	vpclmulqdq	$0x10,%zmm4,%zmm10,%zmm4
	vpslldq	$4,%zmm4,%zmm4

	vpternlogq	$0x96,%zmm7,%zmm6,%zmm4

	vmovdqu64	%zmm4,192(%rsp)

	vpclmulqdq	$0x11,%zmm3,%zmm5,%zmm6
	vpclmulqdq	$0x00,%zmm3,%zmm5,%zmm7
	vpclmulqdq	$0x01,%zmm3,%zmm5,%zmm10
	vpclmulqdq	$0x10,%zmm3,%zmm5,%zmm5
	vpxorq	%zmm10,%zmm5,%zmm5

	vpsrldq	$8,%zmm5,%zmm10
	vpslldq	$8,%zmm5,%zmm5
	vpxorq	%zmm10,%zmm6,%zmm6
	vpxorq	%zmm7,%zmm5,%zmm5



	vmovdqu64	POLY2(%rip),%zmm10

	vpclmulqdq	$0x01,%zmm5,%zmm10,%zmm7
	vpslldq	$8,%zmm7,%zmm7
	vpxorq	%zmm7,%zmm5,%zmm5



	vpclmulqdq	$0x00,%zmm5,%zmm10,%zmm7
	vpsrldq	$4,%zmm7,%zmm7
	vpclmulqdq	$0x10,%zmm5,%zmm10,%zmm5
	vpslldq	$4,%zmm5,%zmm5

	vpternlogq	$0x96,%zmm7,%zmm6,%zmm5

	vmovdqu64	%zmm5,128(%rsp)

	vpclmulqdq	$0x11,%zmm3,%zmm4,%zmm6
	vpclmulqdq	$0x00,%zmm3,%zmm4,%zmm7
	vpclmulqdq	$0x01,%zmm3,%zmm4,%zmm10
	vpclmulqdq	$0x10,%zmm3,%zmm4,%zmm4
	vpxorq	%zmm10,%zmm4,%zmm4

	vpsrldq	$8,%zmm4,%zmm10
	vpslldq	$8,%zmm4,%zmm4
	vpxorq	%zmm10,%zmm6,%zmm6
	vpxorq	%zmm7,%zmm4,%zmm4



	vmovdqu64	POLY2(%rip),%zmm10

	vpclmulqdq	$0x01,%zmm4,%zmm10,%zmm7
	vpslldq	$8,%zmm7,%zmm7
	vpxorq	%zmm7,%zmm4,%zmm4



	vpclmulqdq	$0x00,%zmm4,%zmm10,%zmm7
	vpsrldq	$4,%zmm7,%zmm7
	vpclmulqdq	$0x10,%zmm4,%zmm10,%zmm4
	vpslldq	$4,%zmm4,%zmm4

	vpternlogq	$0x96,%zmm7,%zmm6,%zmm4

	vmovdqu64	%zmm4,64(%rsp)

	vpclmulqdq	$0x11,%zmm3,%zmm5,%zmm6
	vpclmulqdq	$0x00,%zmm3,%zmm5,%zmm7
	vpclmulqdq	$0x01,%zmm3,%zmm5,%zmm10
	vpclmulqdq	$0x10,%zmm3,%zmm5,%zmm5
	vpxorq	%zmm10,%zmm5,%zmm5

	vpsrldq	$8,%zmm5,%zmm10
	vpslldq	$8,%zmm5,%zmm5
	vpxorq	%zmm10,%zmm6,%zmm6
	vpxorq	%zmm7,%zmm5,%zmm5



	vmovdqu64	POLY2(%rip),%zmm10

	vpclmulqdq	$0x01,%zmm5,%zmm10,%zmm7
	vpslldq	$8,%zmm7,%zmm7
	vpxorq	%zmm7,%zmm5,%zmm5



	vpclmulqdq	$0x00,%zmm5,%zmm10,%zmm7
	vpsrldq	$4,%zmm7,%zmm7
	vpclmulqdq	$0x10,%zmm5,%zmm10,%zmm5
	vpslldq	$4,%zmm5,%zmm5

	vpternlogq	$0x96,%zmm7,%zmm6,%zmm5

	vmovdqu64	%zmm5,0(%rsp)
.L_skip_hkeys_precomputation_umzBpgzjdFkAddx:
	movq	$1,%r14
	addq	$512,%r11
	subq	$512,%r8

	cmpq	$768,%r8
	jb	.L_no_more_big_nblocks_GlwqCDtffnuucyn
.L_encrypt_big_nblocks_GlwqCDtffnuucyn:
	cmpb	$240,%r15b
	jae	.L_16_blocks_overflow_yApEipitvvAcgjt
	vpaddd	%zmm28,%zmm2,%zmm0
	vpaddd	%zmm27,%zmm0,%zmm3
	vpaddd	%zmm27,%zmm3,%zmm4
	vpaddd	%zmm27,%zmm4,%zmm5
	jmp	.L_16_blocks_ok_yApEipitvvAcgjt
.L_16_blocks_overflow_yApEipitvvAcgjt:
	vpshufb	%zmm29,%zmm2,%zmm2
	vmovdqa64	ddq_add_4444(%rip),%zmm5
	vpaddd	ddq_add_1234(%rip),%zmm2,%zmm0
	vpaddd	%zmm5,%zmm0,%zmm3
	vpaddd	%zmm5,%zmm3,%zmm4
	vpaddd	%zmm5,%zmm4,%zmm5
	vpshufb	%zmm29,%zmm0,%zmm0
	vpshufb	%zmm29,%zmm3,%zmm3
	vpshufb	%zmm29,%zmm4,%zmm4
	vpshufb	%zmm29,%zmm5,%zmm5
.L_16_blocks_ok_yApEipitvvAcgjt:
	vbroadcastf64x2	0(%rdi),%zmm30
	vpxorq	768(%rsp),%zmm14,%zmm8
	vmovdqu64	0(%rsp),%zmm1




	vshufi64x2	$255,%zmm5,%zmm5,%zmm2
	addb	$16,%r15b


	vbroadcastf64x2	16(%rdi),%zmm31
	vmovdqu64	64(%rsp),%zmm18
	vmovdqa64	832(%rsp),%zmm22







	vpxorq	%zmm30,%zmm0,%zmm0
	vpxorq	%zmm30,%zmm3,%zmm3
	vpxorq	%zmm30,%zmm4,%zmm4
	vpxorq	%zmm30,%zmm5,%zmm5
	vbroadcastf64x2	32(%rdi),%zmm30



	vpclmulqdq	$0x11,%zmm1,%zmm8,%zmm6
	vpclmulqdq	$0x00,%zmm1,%zmm8,%zmm7
	vpclmulqdq	$0x01,%zmm1,%zmm8,%zmm10
	vpclmulqdq	$0x10,%zmm1,%zmm8,%zmm11
	vmovdqu64	128(%rsp),%zmm1
	vmovdqa64	896(%rsp),%zmm8



	vaesenc	%zmm31,%zmm0,%zmm0
	vaesenc	%zmm31,%zmm3,%zmm3
	vaesenc	%zmm31,%zmm4,%zmm4
	vaesenc	%zmm31,%zmm5,%zmm5
	vbroadcastf64x2	48(%rdi),%zmm31



	vpclmulqdq	$0x10,%zmm18,%zmm22,%zmm15
	vpclmulqdq	$0x01,%zmm18,%zmm22,%zmm16
	vpclmulqdq	$0x11,%zmm18,%zmm22,%zmm12
	vpclmulqdq	$0x00,%zmm18,%zmm22,%zmm13
	vmovdqu64	192(%rsp),%zmm18
	vmovdqa64	960(%rsp),%zmm22



	vaesenc	%zmm30,%zmm0,%zmm0
	vaesenc	%zmm30,%zmm3,%zmm3
	vaesenc	%zmm30,%zmm4,%zmm4
	vaesenc	%zmm30,%zmm5,%zmm5
	vbroadcastf64x2	64(%rdi),%zmm30



	vpclmulqdq	$0x10,%zmm1,%zmm8,%zmm20
	vpclmulqdq	$0x01,%zmm1,%zmm8,%zmm21
	vpclmulqdq	$0x11,%zmm1,%zmm8,%zmm17
	vpclmulqdq	$0x00,%zmm1,%zmm8,%zmm19


	vaesenc	%zmm31,%zmm0,%zmm0
	vaesenc	%zmm31,%zmm3,%zmm3
	vaesenc	%zmm31,%zmm4,%zmm4
	vaesenc	%zmm31,%zmm5,%zmm5
	vbroadcastf64x2	80(%rdi),%zmm31



	vpternlogq	$0x96,%zmm17,%zmm12,%zmm6
	vpternlogq	$0x96,%zmm19,%zmm13,%zmm7
	vpternlogq	$0x96,%zmm21,%zmm16,%zmm11
	vpternlogq	$0x96,%zmm20,%zmm15,%zmm10



	vaesenc	%zmm30,%zmm0,%zmm0
	vaesenc	%zmm30,%zmm3,%zmm3
	vaesenc	%zmm30,%zmm4,%zmm4
	vaesenc	%zmm30,%zmm5,%zmm5
	vbroadcastf64x2	96(%rdi),%zmm30



	vmovdqu8	0(%rcx,%r11,1),%zmm17
	vmovdqu8	64(%rcx,%r11,1),%zmm19
	vmovdqu8	128(%rcx,%r11,1),%zmm20
	vmovdqu8	192(%rcx,%r11,1),%zmm21



	vaesenc	%zmm31,%zmm0,%zmm0
	vaesenc	%zmm31,%zmm3,%zmm3
	vaesenc	%zmm31,%zmm4,%zmm4
	vaesenc	%zmm31,%zmm5,%zmm5
	vbroadcastf64x2	112(%rdi),%zmm31



	vpclmulqdq	$0x10,%zmm18,%zmm22,%zmm15
	vpclmulqdq	$0x01,%zmm18,%zmm22,%zmm16
	vpclmulqdq	$0x11,%zmm18,%zmm22,%zmm12
	vpclmulqdq	$0x00,%zmm18,%zmm22,%zmm13


	vaesenc	%zmm30,%zmm0,%zmm0
	vaesenc	%zmm30,%zmm3,%zmm3
	vaesenc	%zmm30,%zmm4,%zmm4
	vaesenc	%zmm30,%zmm5,%zmm5
	vbroadcastf64x2	128(%rdi),%zmm30
	vpternlogq	$0x96,%zmm16,%zmm11,%zmm10
	vpxorq	%zmm15,%zmm10,%zmm26
	vpxorq	%zmm12,%zmm6,%zmm24
	vpxorq	%zmm13,%zmm7,%zmm25
	vaesenc	%zmm31,%zmm0,%zmm0
	vaesenc	%zmm31,%zmm3,%zmm3
	vaesenc	%zmm31,%zmm4,%zmm4
	vaesenc	%zmm31,%zmm5,%zmm5
	vbroadcastf64x2	144(%rdi),%zmm31
	vaesenc	%zmm30,%zmm0,%zmm0
	vaesenc	%zmm30,%zmm3,%zmm3
	vaesenc	%zmm30,%zmm4,%zmm4
	vaesenc	%zmm30,%zmm5,%zmm5
	vbroadcastf64x2	160(%rdi),%zmm30
	vaesenc	%zmm31,%zmm0,%zmm0
	vaesenc	%zmm31,%zmm3,%zmm3
	vaesenc	%zmm31,%zmm4,%zmm4
	vaesenc	%zmm31,%zmm5,%zmm5
	vaesenclast	%zmm30,%zmm0,%zmm0
	vaesenclast	%zmm30,%zmm3,%zmm3
	vaesenclast	%zmm30,%zmm4,%zmm4
	vaesenclast	%zmm30,%zmm5,%zmm5



	vpxorq	%zmm17,%zmm0,%zmm0
	vpxorq	%zmm19,%zmm3,%zmm3
	vpxorq	%zmm20,%zmm4,%zmm4
	vpxorq	%zmm21,%zmm5,%zmm5



	movq	%r9,%r10
	vmovdqu8	%zmm0,0(%r10,%r11,1)
	vmovdqu8	%zmm3,64(%r10,%r11,1)
	vmovdqu8	%zmm4,128(%r10,%r11,1)
	vmovdqu8	%zmm5,192(%r10,%r11,1)
	vpshufb	%zmm29,%zmm0,%zmm0
	vpshufb	%zmm29,%zmm3,%zmm3
	vpshufb	%zmm29,%zmm4,%zmm4
	vpshufb	%zmm29,%zmm5,%zmm5
	vmovdqa64	%zmm0,1280(%rsp)
	vmovdqa64	%zmm3,1344(%rsp)
	vmovdqa64	%zmm4,1408(%rsp)
	vmovdqa64	%zmm5,1472(%rsp)
	cmpb	$240,%r15b
	jae	.L_16_blocks_overflow_bunealpnixoanGp
	vpaddd	%zmm28,%zmm2,%zmm0
	vpaddd	%zmm27,%zmm0,%zmm3
	vpaddd	%zmm27,%zmm3,%zmm4
	vpaddd	%zmm27,%zmm4,%zmm5
	jmp	.L_16_blocks_ok_bunealpnixoanGp
.L_16_blocks_overflow_bunealpnixoanGp:
	vpshufb	%zmm29,%zmm2,%zmm2
	vmovdqa64	ddq_add_4444(%rip),%zmm5
	vpaddd	ddq_add_1234(%rip),%zmm2,%zmm0
	vpaddd	%zmm5,%zmm0,%zmm3
	vpaddd	%zmm5,%zmm3,%zmm4
	vpaddd	%zmm5,%zmm4,%zmm5
	vpshufb	%zmm29,%zmm0,%zmm0
	vpshufb	%zmm29,%zmm3,%zmm3
	vpshufb	%zmm29,%zmm4,%zmm4
	vpshufb	%zmm29,%zmm5,%zmm5
.L_16_blocks_ok_bunealpnixoanGp:
	vbroadcastf64x2	0(%rdi),%zmm30
	vmovdqa64	1024(%rsp),%zmm8
	vmovdqu64	256(%rsp),%zmm1




	vshufi64x2	$255,%zmm5,%zmm5,%zmm2
	addb	$16,%r15b


	vbroadcastf64x2	16(%rdi),%zmm31
	vmovdqu64	320(%rsp),%zmm18
	vmovdqa64	1088(%rsp),%zmm22







	vpxorq	%zmm30,%zmm0,%zmm0
	vpxorq	%zmm30,%zmm3,%zmm3
	vpxorq	%zmm30,%zmm4,%zmm4
	vpxorq	%zmm30,%zmm5,%zmm5
	vbroadcastf64x2	32(%rdi),%zmm30



	vpclmulqdq	$0x11,%zmm1,%zmm8,%zmm6
	vpclmulqdq	$0x00,%zmm1,%zmm8,%zmm7
	vpclmulqdq	$0x01,%zmm1,%zmm8,%zmm10
	vpclmulqdq	$0x10,%zmm1,%zmm8,%zmm11
	vmovdqu64	384(%rsp),%zmm1
	vmovdqa64	1152(%rsp),%zmm8



	vaesenc	%zmm31,%zmm0,%zmm0
	vaesenc	%zmm31,%zmm3,%zmm3
	vaesenc	%zmm31,%zmm4,%zmm4
	vaesenc	%zmm31,%zmm5,%zmm5
	vbroadcastf64x2	48(%rdi),%zmm31



	vpclmulqdq	$0x10,%zmm18,%zmm22,%zmm15
	vpclmulqdq	$0x01,%zmm18,%zmm22,%zmm16
	vpclmulqdq	$0x11,%zmm18,%zmm22,%zmm12
	vpclmulqdq	$0x00,%zmm18,%zmm22,%zmm13
	vmovdqu64	448(%rsp),%zmm18
	vmovdqa64	1216(%rsp),%zmm22



	vaesenc	%zmm30,%zmm0,%zmm0
	vaesenc	%zmm30,%zmm3,%zmm3
	vaesenc	%zmm30,%zmm4,%zmm4
	vaesenc	%zmm30,%zmm5,%zmm5
	vbroadcastf64x2	64(%rdi),%zmm30



	vpclmulqdq	$0x10,%zmm1,%zmm8,%zmm20
	vpclmulqdq	$0x01,%zmm1,%zmm8,%zmm21
	vpclmulqdq	$0x11,%zmm1,%zmm8,%zmm17
	vpclmulqdq	$0x00,%zmm1,%zmm8,%zmm19


	vaesenc	%zmm31,%zmm0,%zmm0
	vaesenc	%zmm31,%zmm3,%zmm3
	vaesenc	%zmm31,%zmm4,%zmm4
	vaesenc	%zmm31,%zmm5,%zmm5
	vbroadcastf64x2	80(%rdi),%zmm31



	vpternlogq	$0x96,%zmm17,%zmm12,%zmm6
	vpternlogq	$0x96,%zmm19,%zmm13,%zmm7
	vpternlogq	$0x96,%zmm21,%zmm16,%zmm11
	vpternlogq	$0x96,%zmm20,%zmm15,%zmm10



	vaesenc	%zmm30,%zmm0,%zmm0
	vaesenc	%zmm30,%zmm3,%zmm3
	vaesenc	%zmm30,%zmm4,%zmm4
	vaesenc	%zmm30,%zmm5,%zmm5
	vbroadcastf64x2	96(%rdi),%zmm30



	vmovdqu8	256(%rcx,%r11,1),%zmm17
	vmovdqu8	320(%rcx,%r11,1),%zmm19
	vmovdqu8	384(%rcx,%r11,1),%zmm20
	vmovdqu8	448(%rcx,%r11,1),%zmm21



	vaesenc	%zmm31,%zmm0,%zmm0
	vaesenc	%zmm31,%zmm3,%zmm3
	vaesenc	%zmm31,%zmm4,%zmm4
	vaesenc	%zmm31,%zmm5,%zmm5
	vbroadcastf64x2	112(%rdi),%zmm31



	vpclmulqdq	$0x10,%zmm18,%zmm22,%zmm15
	vpclmulqdq	$0x01,%zmm18,%zmm22,%zmm16
	vpclmulqdq	$0x11,%zmm18,%zmm22,%zmm12
	vpclmulqdq	$0x00,%zmm18,%zmm22,%zmm13


	vaesenc	%zmm30,%zmm0,%zmm0
	vaesenc	%zmm30,%zmm3,%zmm3
	vaesenc	%zmm30,%zmm4,%zmm4
	vaesenc	%zmm30,%zmm5,%zmm5
	vbroadcastf64x2	128(%rdi),%zmm30
	vpternlogq	$0x96,%zmm16,%zmm11,%zmm10
	vpternlogq	$0x96,%zmm15,%zmm10,%zmm26
	vpternlogq	$0x96,%zmm12,%zmm6,%zmm24
	vpternlogq	$0x96,%zmm13,%zmm7,%zmm25
	vaesenc	%zmm31,%zmm0,%zmm0
	vaesenc	%zmm31,%zmm3,%zmm3
	vaesenc	%zmm31,%zmm4,%zmm4
	vaesenc	%zmm31,%zmm5,%zmm5
	vbroadcastf64x2	144(%rdi),%zmm31
	vaesenc	%zmm30,%zmm0,%zmm0
	vaesenc	%zmm30,%zmm3,%zmm3
	vaesenc	%zmm30,%zmm4,%zmm4
	vaesenc	%zmm30,%zmm5,%zmm5
	vbroadcastf64x2	160(%rdi),%zmm30
	vaesenc	%zmm31,%zmm0,%zmm0
	vaesenc	%zmm31,%zmm3,%zmm3
	vaesenc	%zmm31,%zmm4,%zmm4
	vaesenc	%zmm31,%zmm5,%zmm5
	vaesenclast	%zmm30,%zmm0,%zmm0
	vaesenclast	%zmm30,%zmm3,%zmm3
	vaesenclast	%zmm30,%zmm4,%zmm4
	vaesenclast	%zmm30,%zmm5,%zmm5



	vpxorq	%zmm17,%zmm0,%zmm0
	vpxorq	%zmm19,%zmm3,%zmm3
	vpxorq	%zmm20,%zmm4,%zmm4
	vpxorq	%zmm21,%zmm5,%zmm5



	movq	%r9,%r10
	vmovdqu8	%zmm0,256(%r10,%r11,1)
	vmovdqu8	%zmm3,320(%r10,%r11,1)
	vmovdqu8	%zmm4,384(%r10,%r11,1)
	vmovdqu8	%zmm5,448(%r10,%r11,1)
	vpshufb	%zmm29,%zmm0,%zmm0
	vpshufb	%zmm29,%zmm3,%zmm3
	vpshufb	%zmm29,%zmm4,%zmm4
	vpshufb	%zmm29,%zmm5,%zmm5
	vmovdqa64	%zmm0,768(%rsp)
	vmovdqa64	%zmm3,832(%rsp)
	vmovdqa64	%zmm4,896(%rsp)
	vmovdqa64	%zmm5,960(%rsp)
	cmpb	$240,%r15b
	jae	.L_16_blocks_overflow_azwAkkdDcyqwBmC
	vpaddd	%zmm28,%zmm2,%zmm0
	vpaddd	%zmm27,%zmm0,%zmm3
	vpaddd	%zmm27,%zmm3,%zmm4
	vpaddd	%zmm27,%zmm4,%zmm5
	jmp	.L_16_blocks_ok_azwAkkdDcyqwBmC
.L_16_blocks_overflow_azwAkkdDcyqwBmC:
	vpshufb	%zmm29,%zmm2,%zmm2
	vmovdqa64	ddq_add_4444(%rip),%zmm5
	vpaddd	ddq_add_1234(%rip),%zmm2,%zmm0
	vpaddd	%zmm5,%zmm0,%zmm3
	vpaddd	%zmm5,%zmm3,%zmm4
	vpaddd	%zmm5,%zmm4,%zmm5
	vpshufb	%zmm29,%zmm0,%zmm0
	vpshufb	%zmm29,%zmm3,%zmm3
	vpshufb	%zmm29,%zmm4,%zmm4
	vpshufb	%zmm29,%zmm5,%zmm5
.L_16_blocks_ok_azwAkkdDcyqwBmC:
	vbroadcastf64x2	0(%rdi),%zmm30
	vmovdqa64	1280(%rsp),%zmm8
	vmovdqu64	512(%rsp),%zmm1




	vshufi64x2	$255,%zmm5,%zmm5,%zmm2
	addb	$16,%r15b


	vbroadcastf64x2	16(%rdi),%zmm31
	vmovdqu64	576(%rsp),%zmm18
	vmovdqa64	1344(%rsp),%zmm22







	vpxorq	%zmm30,%zmm0,%zmm0
	vpxorq	%zmm30,%zmm3,%zmm3
	vpxorq	%zmm30,%zmm4,%zmm4
	vpxorq	%zmm30,%zmm5,%zmm5
	vbroadcastf64x2	32(%rdi),%zmm30



	vpclmulqdq	$0x11,%zmm1,%zmm8,%zmm6
	vpclmulqdq	$0x00,%zmm1,%zmm8,%zmm7
	vpclmulqdq	$0x01,%zmm1,%zmm8,%zmm10
	vpclmulqdq	$0x10,%zmm1,%zmm8,%zmm11
	vmovdqu64	640(%rsp),%zmm1
	vmovdqa64	1408(%rsp),%zmm8



	vaesenc	%zmm31,%zmm0,%zmm0
	vaesenc	%zmm31,%zmm3,%zmm3
	vaesenc	%zmm31,%zmm4,%zmm4
	vaesenc	%zmm31,%zmm5,%zmm5
	vbroadcastf64x2	48(%rdi),%zmm31



	vpclmulqdq	$0x10,%zmm18,%zmm22,%zmm15
	vpclmulqdq	$0x01,%zmm18,%zmm22,%zmm16
	vpclmulqdq	$0x11,%zmm18,%zmm22,%zmm12
	vpclmulqdq	$0x00,%zmm18,%zmm22,%zmm13
	vmovdqu64	704(%rsp),%zmm18
	vmovdqa64	1472(%rsp),%zmm22



	vaesenc	%zmm30,%zmm0,%zmm0
	vaesenc	%zmm30,%zmm3,%zmm3
	vaesenc	%zmm30,%zmm4,%zmm4
	vaesenc	%zmm30,%zmm5,%zmm5
	vbroadcastf64x2	64(%rdi),%zmm30



	vpclmulqdq	$0x10,%zmm1,%zmm8,%zmm20
	vpclmulqdq	$0x01,%zmm1,%zmm8,%zmm21
	vpclmulqdq	$0x11,%zmm1,%zmm8,%zmm17
	vpclmulqdq	$0x00,%zmm1,%zmm8,%zmm19


	vaesenc	%zmm31,%zmm0,%zmm0
	vaesenc	%zmm31,%zmm3,%zmm3
	vaesenc	%zmm31,%zmm4,%zmm4
	vaesenc	%zmm31,%zmm5,%zmm5
	vbroadcastf64x2	80(%rdi),%zmm31



	vpternlogq	$0x96,%zmm17,%zmm12,%zmm6
	vpternlogq	$0x96,%zmm19,%zmm13,%zmm7
	vpternlogq	$0x96,%zmm21,%zmm16,%zmm11
	vpternlogq	$0x96,%zmm20,%zmm15,%zmm10



	vaesenc	%zmm30,%zmm0,%zmm0
	vaesenc	%zmm30,%zmm3,%zmm3
	vaesenc	%zmm30,%zmm4,%zmm4
	vaesenc	%zmm30,%zmm5,%zmm5
	vbroadcastf64x2	96(%rdi),%zmm30



	vmovdqu8	512(%rcx,%r11,1),%zmm17
	vmovdqu8	576(%rcx,%r11,1),%zmm19
	vmovdqu8	640(%rcx,%r11,1),%zmm20
	vmovdqu8	704(%rcx,%r11,1),%zmm21



	vaesenc	%zmm31,%zmm0,%zmm0
	vaesenc	%zmm31,%zmm3,%zmm3
	vaesenc	%zmm31,%zmm4,%zmm4
	vaesenc	%zmm31,%zmm5,%zmm5
	vbroadcastf64x2	112(%rdi),%zmm31



	vpclmulqdq	$0x10,%zmm18,%zmm22,%zmm15
	vpclmulqdq	$0x01,%zmm18,%zmm22,%zmm16
	vpclmulqdq	$0x11,%zmm18,%zmm22,%zmm12
	vpclmulqdq	$0x00,%zmm18,%zmm22,%zmm13


	vaesenc	%zmm30,%zmm0,%zmm0
	vaesenc	%zmm30,%zmm3,%zmm3
	vaesenc	%zmm30,%zmm4,%zmm4
	vaesenc	%zmm30,%zmm5,%zmm5
	vbroadcastf64x2	128(%rdi),%zmm30


	vpternlogq	$0x96,%zmm16,%zmm11,%zmm10
	vpternlogq	$0x96,%zmm15,%zmm26,%zmm10

	vpsrldq	$8,%zmm10,%zmm15
	vpslldq	$8,%zmm10,%zmm10

	vmovdqa64	POLY2(%rip),%xmm16
	vaesenc	%zmm31,%zmm0,%zmm0
	vaesenc	%zmm31,%zmm3,%zmm3
	vaesenc	%zmm31,%zmm4,%zmm4
	vaesenc	%zmm31,%zmm5,%zmm5
	vbroadcastf64x2	144(%rdi),%zmm31
	vpternlogq	$0x96,%zmm15,%zmm12,%zmm6
	vpxorq	%zmm24,%zmm6,%zmm6
	vpternlogq	$0x96,%zmm10,%zmm13,%zmm7
	vpxorq	%zmm25,%zmm7,%zmm7
	vaesenc	%zmm30,%zmm0,%zmm0
	vaesenc	%zmm30,%zmm3,%zmm3
	vaesenc	%zmm30,%zmm4,%zmm4
	vaesenc	%zmm30,%zmm5,%zmm5
	vbroadcastf64x2	160(%rdi),%zmm30
	vextracti64x4	$1,%zmm6,%ymm12
	vpxorq	%ymm12,%ymm6,%ymm6
	vextracti32x4	$1,%ymm6,%xmm12
	vpxorq	%xmm12,%xmm6,%xmm6
	vextracti64x4	$1,%zmm7,%ymm13
	vpxorq	%ymm13,%ymm7,%ymm7
	vextracti32x4	$1,%ymm7,%xmm13
	vpxorq	%xmm13,%xmm7,%xmm7
	vaesenc	%zmm31,%zmm0,%zmm0
	vaesenc	%zmm31,%zmm3,%zmm3
	vaesenc	%zmm31,%zmm4,%zmm4
	vaesenc	%zmm31,%zmm5,%zmm5
	vpclmulqdq	$0x01,%xmm7,%xmm16,%xmm13
	vpslldq	$8,%xmm13,%xmm13
	vpxorq	%xmm13,%xmm7,%xmm13
	vpclmulqdq	$0x00,%xmm13,%xmm16,%xmm12
	vpsrldq	$4,%xmm12,%xmm12
	vpclmulqdq	$0x10,%xmm13,%xmm16,%xmm15
	vpslldq	$4,%xmm15,%xmm15

	vpternlogq	$0x96,%xmm12,%xmm15,%xmm6
	vaesenclast	%zmm30,%zmm0,%zmm0
	vaesenclast	%zmm30,%zmm3,%zmm3
	vaesenclast	%zmm30,%zmm4,%zmm4
	vaesenclast	%zmm30,%zmm5,%zmm5



	vpxorq	%zmm17,%zmm0,%zmm0
	vpxorq	%zmm19,%zmm3,%zmm3
	vpxorq	%zmm20,%zmm4,%zmm4
	vpxorq	%zmm21,%zmm5,%zmm5



	movq	%r9,%r10
	vmovdqu8	%zmm0,512(%r10,%r11,1)
	vmovdqu8	%zmm3,576(%r10,%r11,1)
	vmovdqu8	%zmm4,640(%r10,%r11,1)
	vmovdqu8	%zmm5,704(%r10,%r11,1)
	vpshufb	%zmm29,%zmm0,%zmm0
	vpshufb	%zmm29,%zmm3,%zmm3
	vpshufb	%zmm29,%zmm4,%zmm4
	vpshufb	%zmm29,%zmm5,%zmm5
	vmovdqa64	%zmm0,1024(%rsp)
	vmovdqa64	%zmm3,1088(%rsp)
	vmovdqa64	%zmm4,1152(%rsp)
	vmovdqa64	%zmm5,1216(%rsp)
	vmovdqa64	%zmm6,%zmm14

	addq	$768,%r11
	subq	$768,%r8
	cmpq	$768,%r8
	jae	.L_encrypt_big_nblocks_GlwqCDtffnuucyn

.L_no_more_big_nblocks_GlwqCDtffnuucyn:

	cmpq	$512,%r8
	jae	.L_encrypt_32_blocks_GlwqCDtffnuucyn

	cmpq	$256,%r8
	jae	.L_encrypt_16_blocks_GlwqCDtffnuucyn
.L_encrypt_0_blocks_ghash_32_GlwqCDtffnuucyn:
	movl	%r8d,%r10d
	andl	$~15,%r10d
	movl	$256,%ebx
	subl	%r10d,%ebx
	vmovdqa64	768(%rsp),%zmm13
	vpxorq	%zmm14,%zmm13,%zmm13
	vmovdqu64	0(%rsp,%rbx,1),%zmm12
	vpclmulqdq	$0x11,%zmm12,%zmm13,%zmm0
	vpclmulqdq	$0x00,%zmm12,%zmm13,%zmm3
	vpclmulqdq	$0x01,%zmm12,%zmm13,%zmm4
	vpclmulqdq	$0x10,%zmm12,%zmm13,%zmm5
	vmovdqa64	832(%rsp),%zmm13
	vmovdqu64	64(%rsp,%rbx,1),%zmm12
	vpclmulqdq	$0x11,%zmm12,%zmm13,%zmm6
	vpclmulqdq	$0x00,%zmm12,%zmm13,%zmm7
	vpclmulqdq	$0x01,%zmm12,%zmm13,%zmm10
	vpclmulqdq	$0x10,%zmm12,%zmm13,%zmm11
	vpxorq	%zmm10,%zmm4,%zmm26
	vpxorq	%zmm6,%zmm0,%zmm24
	vpxorq	%zmm7,%zmm3,%zmm25
	vpternlogq	$0x96,%zmm11,%zmm5,%zmm26
	vmovdqa64	896(%rsp),%zmm13
	vmovdqu64	128(%rsp,%rbx,1),%zmm12
	vpclmulqdq	$0x11,%zmm12,%zmm13,%zmm0
	vpclmulqdq	$0x00,%zmm12,%zmm13,%zmm3
	vpclmulqdq	$0x01,%zmm12,%zmm13,%zmm4
	vpclmulqdq	$0x10,%zmm12,%zmm13,%zmm5
	vmovdqa64	960(%rsp),%zmm13
	vmovdqu64	192(%rsp,%rbx,1),%zmm12
	vpclmulqdq	$0x11,%zmm12,%zmm13,%zmm6
	vpclmulqdq	$0x00,%zmm12,%zmm13,%zmm7
	vpclmulqdq	$0x01,%zmm12,%zmm13,%zmm10
	vpclmulqdq	$0x10,%zmm12,%zmm13,%zmm11

	vpternlogq	$0x96,%zmm10,%zmm4,%zmm26
	vpternlogq	$0x96,%zmm6,%zmm0,%zmm24
	vpternlogq	$0x96,%zmm7,%zmm3,%zmm25
	vpternlogq	$0x96,%zmm11,%zmm5,%zmm26
	addl	$256,%ebx
	movl	%r8d,%r10d
	addl	$15,%r10d
	shrl	$4,%r10d
	je	.L_last_num_blocks_is_0_DykuFByfDftjliv

	cmpl	$8,%r10d
	je	.L_last_num_blocks_is_8_DykuFByfDftjliv
	jb	.L_last_num_blocks_is_7_1_DykuFByfDftjliv


	cmpl	$12,%r10d
	je	.L_last_num_blocks_is_12_DykuFByfDftjliv
	jb	.L_last_num_blocks_is_11_9_DykuFByfDftjliv


	cmpl	$15,%r10d
	je	.L_last_num_blocks_is_15_DykuFByfDftjliv
	ja	.L_last_num_blocks_is_16_DykuFByfDftjliv
	cmpl	$14,%r10d
	je	.L_last_num_blocks_is_14_DykuFByfDftjliv
	jmp	.L_last_num_blocks_is_13_DykuFByfDftjliv

.L_last_num_blocks_is_11_9_DykuFByfDftjliv:

	cmpl	$10,%r10d
	je	.L_last_num_blocks_is_10_DykuFByfDftjliv
	ja	.L_last_num_blocks_is_11_DykuFByfDftjliv
	jmp	.L_last_num_blocks_is_9_DykuFByfDftjliv

.L_last_num_blocks_is_7_1_DykuFByfDftjliv:
	cmpl	$4,%r10d
	je	.L_last_num_blocks_is_4_DykuFByfDftjliv
	jb	.L_last_num_blocks_is_3_1_DykuFByfDftjliv

	cmpl	$6,%r10d
	ja	.L_last_num_blocks_is_7_DykuFByfDftjliv
	je	.L_last_num_blocks_is_6_DykuFByfDftjliv
	jmp	.L_last_num_blocks_is_5_DykuFByfDftjliv

.L_last_num_blocks_is_3_1_DykuFByfDftjliv:

	cmpl	$2,%r10d
	ja	.L_last_num_blocks_is_3_DykuFByfDftjliv
	je	.L_last_num_blocks_is_2_DykuFByfDftjliv
.L_last_num_blocks_is_1_DykuFByfDftjliv:
	leaq	byte64_len_to_mask_table(%rip),%r10
	movq	%r8,%rax
	kmovq	(%r10,%rax,8),%k1
	cmpl	$255,%r15d
	jae	.L_16_blocks_overflow_BlkotpevcdybxEx
	vpaddd	%xmm28,%xmm2,%xmm0
	jmp	.L_16_blocks_ok_BlkotpevcdybxEx

.L_16_blocks_overflow_BlkotpevcdybxEx:
	vpshufb	%zmm29,%zmm2,%zmm2
	vpaddd	ddq_add_1234(%rip),%zmm2,%zmm0
	vpshufb	%xmm29,%xmm0,%xmm0
.L_16_blocks_ok_BlkotpevcdybxEx:




	vbroadcastf64x2	0(%rdi),%zmm30
	vmovdqa64	1024(%rsp),%zmm8
	vmovdqu64	0(%rsp,%rbx,1),%zmm1
	vextracti32x4	$0,%zmm0,%xmm2
	vshufi64x2	$0,%zmm2,%zmm2,%zmm2


	vbroadcastf64x2	16(%rdi),%zmm31
	vmovdqu64	64(%rsp,%rbx,1),%zmm18
	vmovdqa64	1088(%rsp),%zmm22
	vpxorq	%xmm30,%xmm0,%xmm0
	vbroadcastf64x2	32(%rdi),%zmm30


	vpclmulqdq	$0x11,%zmm1,%zmm8,%zmm14
	vpclmulqdq	$0x00,%zmm1,%zmm8,%zmm7
	vpclmulqdq	$0x01,%zmm1,%zmm8,%zmm10
	vpclmulqdq	$0x10,%zmm1,%zmm8,%zmm11
	vmovdqu64	128(%rsp,%rbx,1),%zmm1
	vmovdqa64	1152(%rsp),%zmm8
	vaesenc	%xmm31,%xmm0,%xmm0
	vbroadcastf64x2	48(%rdi),%zmm31


	vpclmulqdq	$0x10,%zmm18,%zmm22,%zmm15
	vpclmulqdq	$0x01,%zmm18,%zmm22,%zmm16
	vpclmulqdq	$0x11,%zmm18,%zmm22,%zmm12
	vpclmulqdq	$0x00,%zmm18,%zmm22,%zmm13
	vmovdqu64	192(%rsp,%rbx,1),%zmm18
	vmovdqa64	1216(%rsp),%zmm22
	vaesenc	%xmm30,%xmm0,%xmm0
	vbroadcastf64x2	64(%rdi),%zmm30


	vpclmulqdq	$0x10,%zmm1,%zmm8,%zmm20
	vpclmulqdq	$0x01,%zmm1,%zmm8,%zmm21
	vpclmulqdq	$0x11,%zmm1,%zmm8,%zmm17
	vpclmulqdq	$0x00,%zmm1,%zmm8,%zmm19
	vaesenc	%xmm31,%xmm0,%xmm0
	vbroadcastf64x2	80(%rdi),%zmm31


	vpternlogq	$0x96,%zmm17,%zmm12,%zmm14
	vpternlogq	$0x96,%zmm19,%zmm13,%zmm7
	vpternlogq	$0x96,%zmm21,%zmm16,%zmm11
	vpternlogq	$0x96,%zmm20,%zmm15,%zmm10
	vaesenc	%xmm30,%xmm0,%xmm0
	vbroadcastf64x2	96(%rdi),%zmm30
	vmovdqu8	0(%rcx,%r11,1),%xmm17{%k1}{z}
	vaesenc	%xmm31,%xmm0,%xmm0
	vbroadcastf64x2	112(%rdi),%zmm31


	vpclmulqdq	$0x10,%zmm18,%zmm22,%zmm15
	vpclmulqdq	$0x01,%zmm18,%zmm22,%zmm16
	vpclmulqdq	$0x11,%zmm18,%zmm22,%zmm12
	vpclmulqdq	$0x00,%zmm18,%zmm22,%zmm13
	vaesenc	%xmm30,%xmm0,%xmm0
	vbroadcastf64x2	128(%rdi),%zmm30
	vpternlogq	$0x96,%zmm16,%zmm11,%zmm10
	vpternlogq	$0x96,%zmm12,%zmm14,%zmm24
	vpternlogq	$0x96,%zmm13,%zmm7,%zmm25
	vpternlogq	$0x96,%zmm15,%zmm10,%zmm26
	vaesenc	%xmm31,%xmm0,%xmm0
	vbroadcastf64x2	144(%rdi),%zmm31
	vaesenc	%xmm30,%xmm0,%xmm0
	vbroadcastf64x2	160(%rdi),%zmm30
	vaesenc	%xmm31,%xmm0,%xmm0
	vaesenclast	%xmm30,%xmm0,%xmm0
	vpxorq	%xmm17,%xmm0,%xmm0
	vextracti32x4	$0,%zmm0,%xmm11
	movq	%r9,%r10
	vmovdqu8	%xmm0,0(%r10,%r11,1){%k1}
	vmovdqu8	%zmm0,%zmm0{%k1}{z}
	vpshufb	%xmm29,%xmm0,%xmm17
	vextracti32x4	$0,%zmm17,%xmm7


	cmpq	$16,%r8
	jl	.L_small_initial_partial_block_zfolkgkcEesenpl





	subq	$16,%r8
	movq	$0,(%rdx)
	vmovdqu64	336(%rsi),%xmm1
	vpclmulqdq	$0x01,%xmm1,%xmm17,%xmm4
	vpclmulqdq	$0x10,%xmm1,%xmm17,%xmm5
	vpclmulqdq	$0x11,%xmm1,%xmm17,%xmm0
	vpclmulqdq	$0x00,%xmm1,%xmm17,%xmm3
	vpxorq	%zmm26,%zmm4,%zmm4
	vpxorq	%zmm24,%zmm0,%zmm0
	vpxorq	%zmm25,%zmm3,%zmm3

	vpxorq	%zmm5,%zmm4,%zmm4
	vpsrldq	$8,%zmm4,%zmm30
	vpslldq	$8,%zmm4,%zmm31
	vpxorq	%zmm30,%zmm0,%zmm0
	vpxorq	%zmm31,%zmm3,%zmm3
	vextracti64x4	$1,%zmm0,%ymm30
	vpxorq	%ymm30,%ymm0,%ymm0
	vextracti32x4	$1,%ymm0,%xmm30
	vpxorq	%xmm30,%xmm0,%xmm0
	vextracti64x4	$1,%zmm3,%ymm31
	vpxorq	%ymm31,%ymm3,%ymm3
	vextracti32x4	$1,%ymm3,%xmm31
	vpxorq	%xmm31,%xmm3,%xmm3
	vmovdqa64	POLY2(%rip),%xmm1


	vpclmulqdq	$0x01,%xmm3,%xmm1,%xmm4
	vpslldq	$8,%xmm4,%xmm4
	vpxorq	%xmm4,%xmm3,%xmm4


	vpclmulqdq	$0x00,%xmm4,%xmm1,%xmm5
	vpsrldq	$4,%xmm5,%xmm5
	vpclmulqdq	$0x10,%xmm4,%xmm1,%xmm14
	vpslldq	$4,%xmm14,%xmm14
	vpternlogq	$0x96,%xmm0,%xmm5,%xmm14

	jmp	.L_small_initial_compute_done_zfolkgkcEesenpl
.L_small_initial_partial_block_zfolkgkcEesenpl:








	movq	%r8,(%rdx)
	vmovdqu64	%xmm11,16(%rsi)


	vpsrldq	$8,%zmm26,%zmm0
	vpslldq	$8,%zmm26,%zmm3
	vpxorq	%zmm0,%zmm24,%zmm24
	vpxorq	%zmm3,%zmm25,%zmm25
	vextracti64x4	$1,%zmm24,%ymm0
	vpxorq	%ymm0,%ymm24,%ymm24
	vextracti32x4	$1,%ymm24,%xmm0
	vpxorq	%xmm0,%xmm24,%xmm24
	vextracti64x4	$1,%zmm25,%ymm3
	vpxorq	%ymm3,%ymm25,%ymm25
	vextracti32x4	$1,%ymm25,%xmm3
	vpxorq	%xmm3,%xmm25,%xmm25
	vmovdqa64	POLY2(%rip),%xmm0


	vpclmulqdq	$0x01,%xmm25,%xmm0,%xmm3
	vpslldq	$8,%xmm3,%xmm3
	vpxorq	%xmm3,%xmm25,%xmm3


	vpclmulqdq	$0x00,%xmm3,%xmm0,%xmm4
	vpsrldq	$4,%xmm4,%xmm4
	vpclmulqdq	$0x10,%xmm3,%xmm0,%xmm14
	vpslldq	$4,%xmm14,%xmm14
	vpternlogq	$0x96,%xmm24,%xmm4,%xmm14












	vpxorq	%xmm7,%xmm14,%xmm14

	jmp	.L_after_reduction_zfolkgkcEesenpl
.L_small_initial_compute_done_zfolkgkcEesenpl:
.L_after_reduction_zfolkgkcEesenpl:
	jmp	.L_last_blocks_done_DykuFByfDftjliv
.L_last_num_blocks_is_2_DykuFByfDftjliv:
	leaq	byte64_len_to_mask_table(%rip),%r10
	movq	%r8,%rax
	kmovq	(%r10,%rax,8),%k1
	cmpl	$254,%r15d
	jae	.L_16_blocks_overflow_nBxijjufCrqoBsp
	vpaddd	%ymm28,%ymm2,%ymm0
	jmp	.L_16_blocks_ok_nBxijjufCrqoBsp

.L_16_blocks_overflow_nBxijjufCrqoBsp:
	vpshufb	%zmm29,%zmm2,%zmm2
	vpaddd	ddq_add_1234(%rip),%zmm2,%zmm0
	vpshufb	%ymm29,%ymm0,%ymm0
.L_16_blocks_ok_nBxijjufCrqoBsp:




	vbroadcastf64x2	0(%rdi),%zmm30
	vmovdqa64	1024(%rsp),%zmm8
	vmovdqu64	0(%rsp,%rbx,1),%zmm1
	vextracti32x4	$1,%zmm0,%xmm2
	vshufi64x2	$0,%zmm2,%zmm2,%zmm2


	vbroadcastf64x2	16(%rdi),%zmm31
	vmovdqu64	64(%rsp,%rbx,1),%zmm18
	vmovdqa64	1088(%rsp),%zmm22
	vpxorq	%ymm30,%ymm0,%ymm0
	vbroadcastf64x2	32(%rdi),%zmm30


	vpclmulqdq	$0x11,%zmm1,%zmm8,%zmm14
	vpclmulqdq	$0x00,%zmm1,%zmm8,%zmm7
	vpclmulqdq	$0x01,%zmm1,%zmm8,%zmm10
	vpclmulqdq	$0x10,%zmm1,%zmm8,%zmm11
	vmovdqu64	128(%rsp,%rbx,1),%zmm1
	vmovdqa64	1152(%rsp),%zmm8
	vaesenc	%ymm31,%ymm0,%ymm0
	vbroadcastf64x2	48(%rdi),%zmm31


	vpclmulqdq	$0x10,%zmm18,%zmm22,%zmm15
	vpclmulqdq	$0x01,%zmm18,%zmm22,%zmm16
	vpclmulqdq	$0x11,%zmm18,%zmm22,%zmm12
	vpclmulqdq	$0x00,%zmm18,%zmm22,%zmm13
	vmovdqu64	192(%rsp,%rbx,1),%zmm18
	vmovdqa64	1216(%rsp),%zmm22
	vaesenc	%ymm30,%ymm0,%ymm0
	vbroadcastf64x2	64(%rdi),%zmm30


	vpclmulqdq	$0x10,%zmm1,%zmm8,%zmm20
	vpclmulqdq	$0x01,%zmm1,%zmm8,%zmm21
	vpclmulqdq	$0x11,%zmm1,%zmm8,%zmm17
	vpclmulqdq	$0x00,%zmm1,%zmm8,%zmm19
	vaesenc	%ymm31,%ymm0,%ymm0
	vbroadcastf64x2	80(%rdi),%zmm31


	vpternlogq	$0x96,%zmm17,%zmm12,%zmm14
	vpternlogq	$0x96,%zmm19,%zmm13,%zmm7
	vpternlogq	$0x96,%zmm21,%zmm16,%zmm11
	vpternlogq	$0x96,%zmm20,%zmm15,%zmm10
	vaesenc	%ymm30,%ymm0,%ymm0
	vbroadcastf64x2	96(%rdi),%zmm30
	vmovdqu8	0(%rcx,%r11,1),%ymm17{%k1}{z}
	vaesenc	%ymm31,%ymm0,%ymm0
	vbroadcastf64x2	112(%rdi),%zmm31


	vpclmulqdq	$0x10,%zmm18,%zmm22,%zmm15
	vpclmulqdq	$0x01,%zmm18,%zmm22,%zmm16
	vpclmulqdq	$0x11,%zmm18,%zmm22,%zmm12
	vpclmulqdq	$0x00,%zmm18,%zmm22,%zmm13
	vaesenc	%ymm30,%ymm0,%ymm0
	vbroadcastf64x2	128(%rdi),%zmm30
	vpternlogq	$0x96,%zmm16,%zmm11,%zmm10
	vpternlogq	$0x96,%zmm12,%zmm14,%zmm24
	vpternlogq	$0x96,%zmm13,%zmm7,%zmm25
	vpternlogq	$0x96,%zmm15,%zmm10,%zmm26
	vaesenc	%ymm31,%ymm0,%ymm0
	vbroadcastf64x2	144(%rdi),%zmm31
	vaesenc	%ymm30,%ymm0,%ymm0
	vbroadcastf64x2	160(%rdi),%zmm30
	vaesenc	%ymm31,%ymm0,%ymm0
	vaesenclast	%ymm30,%ymm0,%ymm0
	vpxorq	%ymm17,%ymm0,%ymm0
	vextracti32x4	$1,%zmm0,%xmm11
	movq	%r9,%r10
	vmovdqu8	%ymm0,0(%r10,%r11,1){%k1}
	vmovdqu8	%zmm0,%zmm0{%k1}{z}
	vpshufb	%ymm29,%ymm0,%ymm17
	vextracti32x4	$1,%zmm17,%xmm7
	subq	$16 * (2 - 1),%r8


	cmpq	$16,%r8
	jl	.L_small_initial_partial_block_GbDqmxhpiExibsr





	subq	$16,%r8
	movq	$0,(%rdx)
	vmovdqu64	320(%rsi),%ymm1
	vpclmulqdq	$0x01,%ymm1,%ymm17,%ymm4
	vpclmulqdq	$0x10,%ymm1,%ymm17,%ymm5
	vpclmulqdq	$0x11,%ymm1,%ymm17,%ymm0
	vpclmulqdq	$0x00,%ymm1,%ymm17,%ymm3
	vpxorq	%zmm26,%zmm4,%zmm4
	vpxorq	%zmm24,%zmm0,%zmm0
	vpxorq	%zmm25,%zmm3,%zmm3

	vpxorq	%zmm5,%zmm4,%zmm4
	vpsrldq	$8,%zmm4,%zmm30
	vpslldq	$8,%zmm4,%zmm31
	vpxorq	%zmm30,%zmm0,%zmm0
	vpxorq	%zmm31,%zmm3,%zmm3
	vextracti64x4	$1,%zmm0,%ymm30
	vpxorq	%ymm30,%ymm0,%ymm0
	vextracti32x4	$1,%ymm0,%xmm30
	vpxorq	%xmm30,%xmm0,%xmm0
	vextracti64x4	$1,%zmm3,%ymm31
	vpxorq	%ymm31,%ymm3,%ymm3
	vextracti32x4	$1,%ymm3,%xmm31
	vpxorq	%xmm31,%xmm3,%xmm3
	vmovdqa64	POLY2(%rip),%xmm1


	vpclmulqdq	$0x01,%xmm3,%xmm1,%xmm4
	vpslldq	$8,%xmm4,%xmm4
	vpxorq	%xmm4,%xmm3,%xmm4


	vpclmulqdq	$0x00,%xmm4,%xmm1,%xmm5
	vpsrldq	$4,%xmm5,%xmm5
	vpclmulqdq	$0x10,%xmm4,%xmm1,%xmm14
	vpslldq	$4,%xmm14,%xmm14
	vpternlogq	$0x96,%xmm0,%xmm5,%xmm14

	jmp	.L_small_initial_compute_done_GbDqmxhpiExibsr
.L_small_initial_partial_block_GbDqmxhpiExibsr:








	movq	%r8,(%rdx)
	vmovdqu64	%xmm11,16(%rsi)
	vmovdqu64	336(%rsi),%xmm1
	vpclmulqdq	$0x01,%xmm1,%xmm17,%xmm4
	vpclmulqdq	$0x10,%xmm1,%xmm17,%xmm5
	vpclmulqdq	$0x11,%xmm1,%xmm17,%xmm0
	vpclmulqdq	$0x00,%xmm1,%xmm17,%xmm3
	vpxorq	%zmm26,%zmm4,%zmm4
	vpxorq	%zmm24,%zmm0,%zmm0
	vpxorq	%zmm25,%zmm3,%zmm3

	vpxorq	%zmm5,%zmm4,%zmm4
	vpsrldq	$8,%zmm4,%zmm30
	vpslldq	$8,%zmm4,%zmm31
	vpxorq	%zmm30,%zmm0,%zmm0
	vpxorq	%zmm31,%zmm3,%zmm3
	vextracti64x4	$1,%zmm0,%ymm30
	vpxorq	%ymm30,%ymm0,%ymm0
	vextracti32x4	$1,%ymm0,%xmm30
	vpxorq	%xmm30,%xmm0,%xmm0
	vextracti64x4	$1,%zmm3,%ymm31
	vpxorq	%ymm31,%ymm3,%ymm3
	vextracti32x4	$1,%ymm3,%xmm31
	vpxorq	%xmm31,%xmm3,%xmm3
	vmovdqa64	POLY2(%rip),%xmm1


	vpclmulqdq	$0x01,%xmm3,%xmm1,%xmm4
	vpslldq	$8,%xmm4,%xmm4
	vpxorq	%xmm4,%xmm3,%xmm4


	vpclmulqdq	$0x00,%xmm4,%xmm1,%xmm5
	vpsrldq	$4,%xmm5,%xmm5
	vpclmulqdq	$0x10,%xmm4,%xmm1,%xmm14
	vpslldq	$4,%xmm14,%xmm14
	vpternlogq	$0x96,%xmm0,%xmm5,%xmm14

.L_small_initial_compute_done_GbDqmxhpiExibsr:

	orq	%r8,%r8
	je	.L_after_reduction_GbDqmxhpiExibsr
	vpxorq	%xmm7,%xmm14,%xmm14
.L_after_reduction_GbDqmxhpiExibsr:
	jmp	.L_last_blocks_done_DykuFByfDftjliv
.L_last_num_blocks_is_3_DykuFByfDftjliv:
	leaq	byte64_len_to_mask_table(%rip),%r10
	movq	%r8,%rax
	kmovq	(%r10,%rax,8),%k1
	cmpl	$253,%r15d
	jae	.L_16_blocks_overflow_ophldcxrsxwfnBt
	vpaddd	%zmm28,%zmm2,%zmm0
	jmp	.L_16_blocks_ok_ophldcxrsxwfnBt

.L_16_blocks_overflow_ophldcxrsxwfnBt:
	vpshufb	%zmm29,%zmm2,%zmm2
	vpaddd	ddq_add_1234(%rip),%zmm2,%zmm0
	vpshufb	%zmm29,%zmm0,%zmm0
.L_16_blocks_ok_ophldcxrsxwfnBt:




	vbroadcastf64x2	0(%rdi),%zmm30
	vmovdqa64	1024(%rsp),%zmm8
	vmovdqu64	0(%rsp,%rbx,1),%zmm1
	vextracti32x4	$2,%zmm0,%xmm2
	vshufi64x2	$0,%zmm2,%zmm2,%zmm2


	vbroadcastf64x2	16(%rdi),%zmm31
	vmovdqu64	64(%rsp,%rbx,1),%zmm18
	vmovdqa64	1088(%rsp),%zmm22
	vpxorq	%zmm30,%zmm0,%zmm0
	vbroadcastf64x2	32(%rdi),%zmm30


	vpclmulqdq	$0x11,%zmm1,%zmm8,%zmm14
	vpclmulqdq	$0x00,%zmm1,%zmm8,%zmm7
	vpclmulqdq	$0x01,%zmm1,%zmm8,%zmm10
	vpclmulqdq	$0x10,%zmm1,%zmm8,%zmm11
	vmovdqu64	128(%rsp,%rbx,1),%zmm1
	vmovdqa64	1152(%rsp),%zmm8
	vaesenc	%zmm31,%zmm0,%zmm0
	vbroadcastf64x2	48(%rdi),%zmm31


	vpclmulqdq	$0x10,%zmm18,%zmm22,%zmm15
	vpclmulqdq	$0x01,%zmm18,%zmm22,%zmm16
	vpclmulqdq	$0x11,%zmm18,%zmm22,%zmm12
	vpclmulqdq	$0x00,%zmm18,%zmm22,%zmm13
	vmovdqu64	192(%rsp,%rbx,1),%zmm18
	vmovdqa64	1216(%rsp),%zmm22
	vaesenc	%zmm30,%zmm0,%zmm0
	vbroadcastf64x2	64(%rdi),%zmm30


	vpclmulqdq	$0x10,%zmm1,%zmm8,%zmm20
	vpclmulqdq	$0x01,%zmm1,%zmm8,%zmm21
	vpclmulqdq	$0x11,%zmm1,%zmm8,%zmm17
	vpclmulqdq	$0x00,%zmm1,%zmm8,%zmm19
	vaesenc	%zmm31,%zmm0,%zmm0
	vbroadcastf64x2	80(%rdi),%zmm31


	vpternlogq	$0x96,%zmm17,%zmm12,%zmm14
	vpternlogq	$0x96,%zmm19,%zmm13,%zmm7
	vpternlogq	$0x96,%zmm21,%zmm16,%zmm11
	vpternlogq	$0x96,%zmm20,%zmm15,%zmm10
	vaesenc	%zmm30,%zmm0,%zmm0
	vbroadcastf64x2	96(%rdi),%zmm30
	vmovdqu8	0(%rcx,%r11,1),%zmm17{%k1}{z}
	vaesenc	%zmm31,%zmm0,%zmm0
	vbroadcastf64x2	112(%rdi),%zmm31


	vpclmulqdq	$0x10,%zmm18,%zmm22,%zmm15
	vpclmulqdq	$0x01,%zmm18,%zmm22,%zmm16
	vpclmulqdq	$0x11,%zmm18,%zmm22,%zmm12
	vpclmulqdq	$0x00,%zmm18,%zmm22,%zmm13
	vaesenc	%zmm30,%zmm0,%zmm0
	vbroadcastf64x2	128(%rdi),%zmm30
	vpternlogq	$0x96,%zmm16,%zmm11,%zmm10
	vpternlogq	$0x96,%zmm12,%zmm14,%zmm24
	vpternlogq	$0x96,%zmm13,%zmm7,%zmm25
	vpternlogq	$0x96,%zmm15,%zmm10,%zmm26
	vaesenc	%zmm31,%zmm0,%zmm0
	vbroadcastf64x2	144(%rdi),%zmm31
	vaesenc	%zmm30,%zmm0,%zmm0
	vbroadcastf64x2	160(%rdi),%zmm30
	vaesenc	%zmm31,%zmm0,%zmm0
	vaesenclast	%zmm30,%zmm0,%zmm0
	vpxorq	%zmm17,%zmm0,%zmm0
	vextracti32x4	$2,%zmm0,%xmm11
	movq	%r9,%r10
	vmovdqu8	%zmm0,0(%r10,%r11,1){%k1}
	vmovdqu8	%zmm0,%zmm0{%k1}{z}
	vpshufb	%zmm29,%zmm0,%zmm17
	vextracti32x4	$2,%zmm17,%xmm7
	subq	$16 * (3 - 1),%r8


	cmpq	$16,%r8
	jl	.L_small_initial_partial_block_wdcikugwEGduaEG





	subq	$16,%r8
	movq	$0,(%rdx)
	vmovdqu64	304(%rsi),%ymm1
	vinserti64x2	$2,336(%rsi),%zmm1,%zmm1
	vpclmulqdq	$0x01,%zmm1,%zmm17,%zmm4
	vpclmulqdq	$0x10,%zmm1,%zmm17,%zmm5
	vpclmulqdq	$0x11,%zmm1,%zmm17,%zmm0
	vpclmulqdq	$0x00,%zmm1,%zmm17,%zmm3
	vpxorq	%zmm26,%zmm4,%zmm4
	vpxorq	%zmm24,%zmm0,%zmm0
	vpxorq	%zmm25,%zmm3,%zmm3

	vpxorq	%zmm5,%zmm4,%zmm4
	vpsrldq	$8,%zmm4,%zmm30
	vpslldq	$8,%zmm4,%zmm31
	vpxorq	%zmm30,%zmm0,%zmm0
	vpxorq	%zmm31,%zmm3,%zmm3
	vextracti64x4	$1,%zmm0,%ymm30
	vpxorq	%ymm30,%ymm0,%ymm0
	vextracti32x4	$1,%ymm0,%xmm30
	vpxorq	%xmm30,%xmm0,%xmm0
	vextracti64x4	$1,%zmm3,%ymm31
	vpxorq	%ymm31,%ymm3,%ymm3
	vextracti32x4	$1,%ymm3,%xmm31
	vpxorq	%xmm31,%xmm3,%xmm3
	vmovdqa64	POLY2(%rip),%xmm1


	vpclmulqdq	$0x01,%xmm3,%xmm1,%xmm4
	vpslldq	$8,%xmm4,%xmm4
	vpxorq	%xmm4,%xmm3,%xmm4


	vpclmulqdq	$0x00,%xmm4,%xmm1,%xmm5
	vpsrldq	$4,%xmm5,%xmm5
	vpclmulqdq	$0x10,%xmm4,%xmm1,%xmm14
	vpslldq	$4,%xmm14,%xmm14
	vpternlogq	$0x96,%xmm0,%xmm5,%xmm14

	jmp	.L_small_initial_compute_done_wdcikugwEGduaEG
.L_small_initial_partial_block_wdcikugwEGduaEG:








	movq	%r8,(%rdx)
	vmovdqu64	%xmm11,16(%rsi)
	vmovdqu64	320(%rsi),%ymm1
	vpclmulqdq	$0x01,%ymm1,%ymm17,%ymm4
	vpclmulqdq	$0x10,%ymm1,%ymm17,%ymm5
	vpclmulqdq	$0x11,%ymm1,%ymm17,%ymm0
	vpclmulqdq	$0x00,%ymm1,%ymm17,%ymm3
	vpxorq	%zmm26,%zmm4,%zmm4
	vpxorq	%zmm24,%zmm0,%zmm0
	vpxorq	%zmm25,%zmm3,%zmm3

	vpxorq	%zmm5,%zmm4,%zmm4
	vpsrldq	$8,%zmm4,%zmm30
	vpslldq	$8,%zmm4,%zmm31
	vpxorq	%zmm30,%zmm0,%zmm0
	vpxorq	%zmm31,%zmm3,%zmm3
	vextracti64x4	$1,%zmm0,%ymm30
	vpxorq	%ymm30,%ymm0,%ymm0
	vextracti32x4	$1,%ymm0,%xmm30
	vpxorq	%xmm30,%xmm0,%xmm0
	vextracti64x4	$1,%zmm3,%ymm31
	vpxorq	%ymm31,%ymm3,%ymm3
	vextracti32x4	$1,%ymm3,%xmm31
	vpxorq	%xmm31,%xmm3,%xmm3
	vmovdqa64	POLY2(%rip),%xmm1


	vpclmulqdq	$0x01,%xmm3,%xmm1,%xmm4
	vpslldq	$8,%xmm4,%xmm4
	vpxorq	%xmm4,%xmm3,%xmm4


	vpclmulqdq	$0x00,%xmm4,%xmm1,%xmm5
	vpsrldq	$4,%xmm5,%xmm5
	vpclmulqdq	$0x10,%xmm4,%xmm1,%xmm14
	vpslldq	$4,%xmm14,%xmm14
	vpternlogq	$0x96,%xmm0,%xmm5,%xmm14

.L_small_initial_compute_done_wdcikugwEGduaEG:

	orq	%r8,%r8
	je	.L_after_reduction_wdcikugwEGduaEG
	vpxorq	%xmm7,%xmm14,%xmm14
.L_after_reduction_wdcikugwEGduaEG:
	jmp	.L_last_blocks_done_DykuFByfDftjliv
.L_last_num_blocks_is_4_DykuFByfDftjliv:
	leaq	byte64_len_to_mask_table(%rip),%r10
	movq	%r8,%rax
	kmovq	(%r10,%rax,8),%k1
	cmpl	$252,%r15d
	jae	.L_16_blocks_overflow_zgFzlfvhAyiorEy
	vpaddd	%zmm28,%zmm2,%zmm0
	jmp	.L_16_blocks_ok_zgFzlfvhAyiorEy

.L_16_blocks_overflow_zgFzlfvhAyiorEy:
	vpshufb	%zmm29,%zmm2,%zmm2
	vpaddd	ddq_add_1234(%rip),%zmm2,%zmm0
	vpshufb	%zmm29,%zmm0,%zmm0
.L_16_blocks_ok_zgFzlfvhAyiorEy:




	vbroadcastf64x2	0(%rdi),%zmm30
	vmovdqa64	1024(%rsp),%zmm8
	vmovdqu64	0(%rsp,%rbx,1),%zmm1
	vextracti32x4	$3,%zmm0,%xmm2
	vshufi64x2	$0,%zmm2,%zmm2,%zmm2


	vbroadcastf64x2	16(%rdi),%zmm31
	vmovdqu64	64(%rsp,%rbx,1),%zmm18
	vmovdqa64	1088(%rsp),%zmm22
	vpxorq	%zmm30,%zmm0,%zmm0
	vbroadcastf64x2	32(%rdi),%zmm30


	vpclmulqdq	$0x11,%zmm1,%zmm8,%zmm14
	vpclmulqdq	$0x00,%zmm1,%zmm8,%zmm7
	vpclmulqdq	$0x01,%zmm1,%zmm8,%zmm10
	vpclmulqdq	$0x10,%zmm1,%zmm8,%zmm11
	vmovdqu64	128(%rsp,%rbx,1),%zmm1
	vmovdqa64	1152(%rsp),%zmm8
	vaesenc	%zmm31,%zmm0,%zmm0
	vbroadcastf64x2	48(%rdi),%zmm31


	vpclmulqdq	$0x10,%zmm18,%zmm22,%zmm15
	vpclmulqdq	$0x01,%zmm18,%zmm22,%zmm16
	vpclmulqdq	$0x11,%zmm18,%zmm22,%zmm12
	vpclmulqdq	$0x00,%zmm18,%zmm22,%zmm13
	vmovdqu64	192(%rsp,%rbx,1),%zmm18
	vmovdqa64	1216(%rsp),%zmm22
	vaesenc	%zmm30,%zmm0,%zmm0
	vbroadcastf64x2	64(%rdi),%zmm30


	vpclmulqdq	$0x10,%zmm1,%zmm8,%zmm20
	vpclmulqdq	$0x01,%zmm1,%zmm8,%zmm21
	vpclmulqdq	$0x11,%zmm1,%zmm8,%zmm17
	vpclmulqdq	$0x00,%zmm1,%zmm8,%zmm19
	vaesenc	%zmm31,%zmm0,%zmm0
	vbroadcastf64x2	80(%rdi),%zmm31


	vpternlogq	$0x96,%zmm17,%zmm12,%zmm14
	vpternlogq	$0x96,%zmm19,%zmm13,%zmm7
	vpternlogq	$0x96,%zmm21,%zmm16,%zmm11
	vpternlogq	$0x96,%zmm20,%zmm15,%zmm10
	vaesenc	%zmm30,%zmm0,%zmm0
	vbroadcastf64x2	96(%rdi),%zmm30
	vmovdqu8	0(%rcx,%r11,1),%zmm17{%k1}{z}
	vaesenc	%zmm31,%zmm0,%zmm0
	vbroadcastf64x2	112(%rdi),%zmm31


	vpclmulqdq	$0x10,%zmm18,%zmm22,%zmm15
	vpclmulqdq	$0x01,%zmm18,%zmm22,%zmm16
	vpclmulqdq	$0x11,%zmm18,%zmm22,%zmm12
	vpclmulqdq	$0x00,%zmm18,%zmm22,%zmm13
	vaesenc	%zmm30,%zmm0,%zmm0
	vbroadcastf64x2	128(%rdi),%zmm30
	vpternlogq	$0x96,%zmm16,%zmm11,%zmm10
	vpternlogq	$0x96,%zmm12,%zmm14,%zmm24
	vpternlogq	$0x96,%zmm13,%zmm7,%zmm25
	vpternlogq	$0x96,%zmm15,%zmm10,%zmm26
	vaesenc	%zmm31,%zmm0,%zmm0
	vbroadcastf64x2	144(%rdi),%zmm31
	vaesenc	%zmm30,%zmm0,%zmm0
	vbroadcastf64x2	160(%rdi),%zmm30
	vaesenc	%zmm31,%zmm0,%zmm0
	vaesenclast	%zmm30,%zmm0,%zmm0
	vpxorq	%zmm17,%zmm0,%zmm0
	vextracti32x4	$3,%zmm0,%xmm11
	movq	%r9,%r10
	vmovdqu8	%zmm0,0(%r10,%r11,1){%k1}
	vmovdqu8	%zmm0,%zmm0{%k1}{z}
	vpshufb	%zmm29,%zmm0,%zmm17
	vextracti32x4	$3,%zmm17,%xmm7
	subq	$16 * (4 - 1),%r8


	cmpq	$16,%r8
	jl	.L_small_initial_partial_block_BioBztDzrlGsEtB





	subq	$16,%r8
	movq	$0,(%rdx)
	vmovdqu64	288(%rsi),%zmm1
	vpclmulqdq	$0x11,%zmm1,%zmm17,%zmm8
	vpclmulqdq	$0x00,%zmm1,%zmm17,%zmm22
	vpclmulqdq	$0x01,%zmm1,%zmm17,%zmm30
	vpclmulqdq	$0x10,%zmm1,%zmm17,%zmm31

	vpxorq	%zmm26,%zmm30,%zmm30
	vpxorq	%zmm24,%zmm8,%zmm8
	vpxorq	%zmm25,%zmm22,%zmm22

	vpxorq	%zmm31,%zmm30,%zmm30
	vpsrldq	$8,%zmm30,%zmm4
	vpslldq	$8,%zmm30,%zmm5
	vpxorq	%zmm4,%zmm8,%zmm0
	vpxorq	%zmm5,%zmm22,%zmm3
	vextracti64x4	$1,%zmm0,%ymm30
	vpxorq	%ymm30,%ymm0,%ymm0
	vextracti32x4	$1,%ymm0,%xmm30
	vpxorq	%xmm30,%xmm0,%xmm0
	vextracti64x4	$1,%zmm3,%ymm31
	vpxorq	%ymm31,%ymm3,%ymm3
	vextracti32x4	$1,%ymm3,%xmm31
	vpxorq	%xmm31,%xmm3,%xmm3
	vmovdqa64	POLY2(%rip),%xmm1


	vpclmulqdq	$0x01,%xmm3,%xmm1,%xmm4
	vpslldq	$8,%xmm4,%xmm4
	vpxorq	%xmm4,%xmm3,%xmm4


	vpclmulqdq	$0x00,%xmm4,%xmm1,%xmm5
	vpsrldq	$4,%xmm5,%xmm5
	vpclmulqdq	$0x10,%xmm4,%xmm1,%xmm14
	vpslldq	$4,%xmm14,%xmm14
	vpternlogq	$0x96,%xmm0,%xmm5,%xmm14

	jmp	.L_small_initial_compute_done_BioBztDzrlGsEtB
.L_small_initial_partial_block_BioBztDzrlGsEtB:








	movq	%r8,(%rdx)
	vmovdqu64	%xmm11,16(%rsi)
	vmovdqu64	304(%rsi),%ymm1
	vinserti64x2	$2,336(%rsi),%zmm1,%zmm1
	vpclmulqdq	$0x01,%zmm1,%zmm17,%zmm4
	vpclmulqdq	$0x10,%zmm1,%zmm17,%zmm5
	vpclmulqdq	$0x11,%zmm1,%zmm17,%zmm0
	vpclmulqdq	$0x00,%zmm1,%zmm17,%zmm3
	vpxorq	%zmm26,%zmm4,%zmm4
	vpxorq	%zmm24,%zmm0,%zmm0
	vpxorq	%zmm25,%zmm3,%zmm3

	vpxorq	%zmm5,%zmm4,%zmm4
	vpsrldq	$8,%zmm4,%zmm30
	vpslldq	$8,%zmm4,%zmm31
	vpxorq	%zmm30,%zmm0,%zmm0
	vpxorq	%zmm31,%zmm3,%zmm3
	vextracti64x4	$1,%zmm0,%ymm30
	vpxorq	%ymm30,%ymm0,%ymm0
	vextracti32x4	$1,%ymm0,%xmm30
	vpxorq	%xmm30,%xmm0,%xmm0
	vextracti64x4	$1,%zmm3,%ymm31
	vpxorq	%ymm31,%ymm3,%ymm3
	vextracti32x4	$1,%ymm3,%xmm31
	vpxorq	%xmm31,%xmm3,%xmm3
	vmovdqa64	POLY2(%rip),%xmm1


	vpclmulqdq	$0x01,%xmm3,%xmm1,%xmm4
	vpslldq	$8,%xmm4,%xmm4
	vpxorq	%xmm4,%xmm3,%xmm4


	vpclmulqdq	$0x00,%xmm4,%xmm1,%xmm5
	vpsrldq	$4,%xmm5,%xmm5
	vpclmulqdq	$0x10,%xmm4,%xmm1,%xmm14
	vpslldq	$4,%xmm14,%xmm14
	vpternlogq	$0x96,%xmm0,%xmm5,%xmm14

.L_small_initial_compute_done_BioBztDzrlGsEtB:

	orq	%r8,%r8
	je	.L_after_reduction_BioBztDzrlGsEtB
	vpxorq	%xmm7,%xmm14,%xmm14
.L_after_reduction_BioBztDzrlGsEtB:
	jmp	.L_last_blocks_done_DykuFByfDftjliv
.L_last_num_blocks_is_5_DykuFByfDftjliv:
	leaq	byte64_len_to_mask_table(%rip),%r10
	movq	%r8,%rax
	subq	$64,%rax
	kmovq	(%r10,%rax,8),%k1
	cmpl	$251,%r15d
	jae	.L_16_blocks_overflow_wGuwEEdryzpcase
	vpaddd	%zmm28,%zmm2,%zmm0
	vpaddd	%xmm27,%xmm0,%xmm3
	jmp	.L_16_blocks_ok_wGuwEEdryzpcase

.L_16_blocks_overflow_wGuwEEdryzpcase:
	vpshufb	%zmm29,%zmm2,%zmm2
	vpaddd	ddq_add_1234(%rip),%zmm2,%zmm0
	vmovdqa64	ddq_add_4444(%rip),%zmm5
	vpaddd	%zmm5,%zmm0,%zmm3
	vpshufb	%zmm29,%zmm0,%zmm0
	vpshufb	%xmm29,%xmm3,%xmm3
.L_16_blocks_ok_wGuwEEdryzpcase:




	vbroadcastf64x2	0(%rdi),%zmm30
	vmovdqa64	1024(%rsp),%zmm8
	vmovdqu64	0(%rsp,%rbx,1),%zmm1
	vextracti32x4	$0,%zmm3,%xmm2
	vshufi64x2	$0,%zmm2,%zmm2,%zmm2


	vbroadcastf64x2	16(%rdi),%zmm31
	vmovdqu64	64(%rsp,%rbx,1),%zmm18
	vmovdqa64	1088(%rsp),%zmm22
	vpxorq	%zmm30,%zmm0,%zmm0
	vpxorq	%xmm30,%xmm3,%xmm3
	vbroadcastf64x2	32(%rdi),%zmm30


	vpclmulqdq	$0x11,%zmm1,%zmm8,%zmm14
	vpclmulqdq	$0x00,%zmm1,%zmm8,%zmm7
	vpclmulqdq	$0x01,%zmm1,%zmm8,%zmm10
	vpclmulqdq	$0x10,%zmm1,%zmm8,%zmm11
	vmovdqu64	128(%rsp,%rbx,1),%zmm1
	vmovdqa64	1152(%rsp),%zmm8
	vaesenc	%zmm31,%zmm0,%zmm0
	vaesenc	%xmm31,%xmm3,%xmm3
	vbroadcastf64x2	48(%rdi),%zmm31


	vpclmulqdq	$0x10,%zmm18,%zmm22,%zmm15
	vpclmulqdq	$0x01,%zmm18,%zmm22,%zmm16
	vpclmulqdq	$0x11,%zmm18,%zmm22,%zmm12
	vpclmulqdq	$0x00,%zmm18,%zmm22,%zmm13
	vmovdqu64	192(%rsp,%rbx,1),%zmm18
	vmovdqa64	1216(%rsp),%zmm22
	vaesenc	%zmm30,%zmm0,%zmm0
	vaesenc	%xmm30,%xmm3,%xmm3
	vbroadcastf64x2	64(%rdi),%zmm30


	vpclmulqdq	$0x10,%zmm1,%zmm8,%zmm20
	vpclmulqdq	$0x01,%zmm1,%zmm8,%zmm21
	vpclmulqdq	$0x11,%zmm1,%zmm8,%zmm17
	vpclmulqdq	$0x00,%zmm1,%zmm8,%zmm19
	vaesenc	%zmm31,%zmm0,%zmm0
	vaesenc	%xmm31,%xmm3,%xmm3
	vbroadcastf64x2	80(%rdi),%zmm31


	vpternlogq	$0x96,%zmm17,%zmm12,%zmm14
	vpternlogq	$0x96,%zmm19,%zmm13,%zmm7
	vpternlogq	$0x96,%zmm21,%zmm16,%zmm11
	vpternlogq	$0x96,%zmm20,%zmm15,%zmm10
	vaesenc	%zmm30,%zmm0,%zmm0
	vaesenc	%xmm30,%xmm3,%xmm3
	vbroadcastf64x2	96(%rdi),%zmm30
	vmovdqu8	0(%rcx,%r11,1),%zmm17
	vmovdqu8	64(%rcx,%r11,1),%xmm19{%k1}{z}
	vaesenc	%zmm31,%zmm0,%zmm0
	vaesenc	%xmm31,%xmm3,%xmm3
	vbroadcastf64x2	112(%rdi),%zmm31


	vpclmulqdq	$0x10,%zmm18,%zmm22,%zmm15
	vpclmulqdq	$0x01,%zmm18,%zmm22,%zmm16
	vpclmulqdq	$0x11,%zmm18,%zmm22,%zmm12
	vpclmulqdq	$0x00,%zmm18,%zmm22,%zmm13
	vaesenc	%zmm30,%zmm0,%zmm0
	vaesenc	%xmm30,%xmm3,%xmm3
	vbroadcastf64x2	128(%rdi),%zmm30
	vpternlogq	$0x96,%zmm16,%zmm11,%zmm10
	vpternlogq	$0x96,%zmm12,%zmm14,%zmm24
	vpternlogq	$0x96,%zmm13,%zmm7,%zmm25
	vpternlogq	$0x96,%zmm15,%zmm10,%zmm26
	vaesenc	%zmm31,%zmm0,%zmm0
	vaesenc	%xmm31,%xmm3,%xmm3
	vbroadcastf64x2	144(%rdi),%zmm31
	vaesenc	%zmm30,%zmm0,%zmm0
	vaesenc	%xmm30,%xmm3,%xmm3
	vbroadcastf64x2	160(%rdi),%zmm30
	vaesenc	%zmm31,%zmm0,%zmm0
	vaesenc	%xmm31,%xmm3,%xmm3
	vaesenclast	%zmm30,%zmm0,%zmm0
	vaesenclast	%xmm30,%xmm3,%xmm3
	vpxorq	%zmm17,%zmm0,%zmm0
	vpxorq	%xmm19,%xmm3,%xmm3
	vextracti32x4	$0,%zmm3,%xmm11
	movq	%r9,%r10
	vmovdqu8	%zmm0,0(%r10,%r11,1)
	vmovdqu8	%xmm3,64(%r10,%r11,1){%k1}
	vmovdqu8	%zmm3,%zmm3{%k1}{z}
	vpshufb	%zmm29,%zmm0,%zmm17
	vpshufb	%xmm29,%xmm3,%xmm19
	vextracti32x4	$0,%zmm19,%xmm7
	subq	$16 * (5 - 1),%r8


	cmpq	$16,%r8
	jl	.L_small_initial_partial_block_mmshnEEGgbDygns





	subq	$16,%r8
	movq	$0,(%rdx)
	vmovdqu64	272(%rsi),%zmm1
	vpclmulqdq	$0x11,%zmm1,%zmm17,%zmm8
	vpclmulqdq	$0x00,%zmm1,%zmm17,%zmm22
	vpclmulqdq	$0x01,%zmm1,%zmm17,%zmm30
	vpclmulqdq	$0x10,%zmm1,%zmm17,%zmm31
	vmovdqu64	336(%rsi),%xmm1
	vpclmulqdq	$0x01,%xmm1,%xmm19,%xmm4
	vpclmulqdq	$0x10,%xmm1,%xmm19,%xmm5
	vpclmulqdq	$0x11,%xmm1,%xmm19,%xmm0
	vpclmulqdq	$0x00,%xmm1,%xmm19,%xmm3

	vpxorq	%zmm30,%zmm4,%zmm4
	vpternlogq	$0x96,%zmm31,%zmm26,%zmm5
	vpternlogq	$0x96,%zmm8,%zmm24,%zmm0
	vpternlogq	$0x96,%zmm22,%zmm25,%zmm3

	vpxorq	%zmm5,%zmm4,%zmm4
	vpsrldq	$8,%zmm4,%zmm30
	vpslldq	$8,%zmm4,%zmm31
	vpxorq	%zmm30,%zmm0,%zmm0
	vpxorq	%zmm31,%zmm3,%zmm3
	vextracti64x4	$1,%zmm0,%ymm30
	vpxorq	%ymm30,%ymm0,%ymm0
	vextracti32x4	$1,%ymm0,%xmm30
	vpxorq	%xmm30,%xmm0,%xmm0
	vextracti64x4	$1,%zmm3,%ymm31
	vpxorq	%ymm31,%ymm3,%ymm3
	vextracti32x4	$1,%ymm3,%xmm31
	vpxorq	%xmm31,%xmm3,%xmm3
	vmovdqa64	POLY2(%rip),%xmm1


	vpclmulqdq	$0x01,%xmm3,%xmm1,%xmm4
	vpslldq	$8,%xmm4,%xmm4
	vpxorq	%xmm4,%xmm3,%xmm4


	vpclmulqdq	$0x00,%xmm4,%xmm1,%xmm5
	vpsrldq	$4,%xmm5,%xmm5
	vpclmulqdq	$0x10,%xmm4,%xmm1,%xmm14
	vpslldq	$4,%xmm14,%xmm14
	vpternlogq	$0x96,%xmm0,%xmm5,%xmm14

	jmp	.L_small_initial_compute_done_mmshnEEGgbDygns
.L_small_initial_partial_block_mmshnEEGgbDygns:








	movq	%r8,(%rdx)
	vmovdqu64	%xmm11,16(%rsi)
	vmovdqu64	288(%rsi),%zmm1
	vpclmulqdq	$0x11,%zmm1,%zmm17,%zmm8
	vpclmulqdq	$0x00,%zmm1,%zmm17,%zmm22
	vpclmulqdq	$0x01,%zmm1,%zmm17,%zmm30
	vpclmulqdq	$0x10,%zmm1,%zmm17,%zmm31

	vpxorq	%zmm26,%zmm30,%zmm30
	vpxorq	%zmm24,%zmm8,%zmm8
	vpxorq	%zmm25,%zmm22,%zmm22

	vpxorq	%zmm31,%zmm30,%zmm30
	vpsrldq	$8,%zmm30,%zmm4
	vpslldq	$8,%zmm30,%zmm5
	vpxorq	%zmm4,%zmm8,%zmm0
	vpxorq	%zmm5,%zmm22,%zmm3
	vextracti64x4	$1,%zmm0,%ymm30
	vpxorq	%ymm30,%ymm0,%ymm0
	vextracti32x4	$1,%ymm0,%xmm30
	vpxorq	%xmm30,%xmm0,%xmm0
	vextracti64x4	$1,%zmm3,%ymm31
	vpxorq	%ymm31,%ymm3,%ymm3
	vextracti32x4	$1,%ymm3,%xmm31
	vpxorq	%xmm31,%xmm3,%xmm3
	vmovdqa64	POLY2(%rip),%xmm1


	vpclmulqdq	$0x01,%xmm3,%xmm1,%xmm4
	vpslldq	$8,%xmm4,%xmm4
	vpxorq	%xmm4,%xmm3,%xmm4


	vpclmulqdq	$0x00,%xmm4,%xmm1,%xmm5
	vpsrldq	$4,%xmm5,%xmm5
	vpclmulqdq	$0x10,%xmm4,%xmm1,%xmm14
	vpslldq	$4,%xmm14,%xmm14
	vpternlogq	$0x96,%xmm0,%xmm5,%xmm14

.L_small_initial_compute_done_mmshnEEGgbDygns:

	orq	%r8,%r8
	je	.L_after_reduction_mmshnEEGgbDygns
	vpxorq	%xmm7,%xmm14,%xmm14
.L_after_reduction_mmshnEEGgbDygns:
	jmp	.L_last_blocks_done_DykuFByfDftjliv
.L_last_num_blocks_is_6_DykuFByfDftjliv:
	leaq	byte64_len_to_mask_table(%rip),%r10
	movq	%r8,%rax
	subq	$64,%rax
	kmovq	(%r10,%rax,8),%k1
	cmpl	$250,%r15d
	jae	.L_16_blocks_overflow_iyckowqdpiteCqp
	vpaddd	%zmm28,%zmm2,%zmm0
	vpaddd	%ymm27,%ymm0,%ymm3
	jmp	.L_16_blocks_ok_iyckowqdpiteCqp

.L_16_blocks_overflow_iyckowqdpiteCqp:
	vpshufb	%zmm29,%zmm2,%zmm2
	vpaddd	ddq_add_1234(%rip),%zmm2,%zmm0
	vmovdqa64	ddq_add_4444(%rip),%zmm5
	vpaddd	%zmm5,%zmm0,%zmm3
	vpshufb	%zmm29,%zmm0,%zmm0
	vpshufb	%ymm29,%ymm3,%ymm3
.L_16_blocks_ok_iyckowqdpiteCqp:




	vbroadcastf64x2	0(%rdi),%zmm30
	vmovdqa64	1024(%rsp),%zmm8
	vmovdqu64	0(%rsp,%rbx,1),%zmm1
	vextracti32x4	$1,%zmm3,%xmm2
	vshufi64x2	$0,%zmm2,%zmm2,%zmm2


	vbroadcastf64x2	16(%rdi),%zmm31
	vmovdqu64	64(%rsp,%rbx,1),%zmm18
	vmovdqa64	1088(%rsp),%zmm22
	vpxorq	%zmm30,%zmm0,%zmm0
	vpxorq	%ymm30,%ymm3,%ymm3
	vbroadcastf64x2	32(%rdi),%zmm30


	vpclmulqdq	$0x11,%zmm1,%zmm8,%zmm14
	vpclmulqdq	$0x00,%zmm1,%zmm8,%zmm7
	vpclmulqdq	$0x01,%zmm1,%zmm8,%zmm10
	vpclmulqdq	$0x10,%zmm1,%zmm8,%zmm11
	vmovdqu64	128(%rsp,%rbx,1),%zmm1
	vmovdqa64	1152(%rsp),%zmm8
	vaesenc	%zmm31,%zmm0,%zmm0
	vaesenc	%ymm31,%ymm3,%ymm3
	vbroadcastf64x2	48(%rdi),%zmm31


	vpclmulqdq	$0x10,%zmm18,%zmm22,%zmm15
	vpclmulqdq	$0x01,%zmm18,%zmm22,%zmm16
	vpclmulqdq	$0x11,%zmm18,%zmm22,%zmm12
	vpclmulqdq	$0x00,%zmm18,%zmm22,%zmm13
	vmovdqu64	192(%rsp,%rbx,1),%zmm18
	vmovdqa64	1216(%rsp),%zmm22
	vaesenc	%zmm30,%zmm0,%zmm0
	vaesenc	%ymm30,%ymm3,%ymm3
	vbroadcastf64x2	64(%rdi),%zmm30


	vpclmulqdq	$0x10,%zmm1,%zmm8,%zmm20
	vpclmulqdq	$0x01,%zmm1,%zmm8,%zmm21
	vpclmulqdq	$0x11,%zmm1,%zmm8,%zmm17
	vpclmulqdq	$0x00,%zmm1,%zmm8,%zmm19
	vaesenc	%zmm31,%zmm0,%zmm0
	vaesenc	%ymm31,%ymm3,%ymm3
	vbroadcastf64x2	80(%rdi),%zmm31


	vpternlogq	$0x96,%zmm17,%zmm12,%zmm14
	vpternlogq	$0x96,%zmm19,%zmm13,%zmm7
	vpternlogq	$0x96,%zmm21,%zmm16,%zmm11
	vpternlogq	$0x96,%zmm20,%zmm15,%zmm10
	vaesenc	%zmm30,%zmm0,%zmm0
	vaesenc	%ymm30,%ymm3,%ymm3
	vbroadcastf64x2	96(%rdi),%zmm30
	vmovdqu8	0(%rcx,%r11,1),%zmm17
	vmovdqu8	64(%rcx,%r11,1),%ymm19{%k1}{z}
	vaesenc	%zmm31,%zmm0,%zmm0
	vaesenc	%ymm31,%ymm3,%ymm3
	vbroadcastf64x2	112(%rdi),%zmm31


	vpclmulqdq	$0x10,%zmm18,%zmm22,%zmm15
	vpclmulqdq	$0x01,%zmm18,%zmm22,%zmm16
	vpclmulqdq	$0x11,%zmm18,%zmm22,%zmm12
	vpclmulqdq	$0x00,%zmm18,%zmm22,%zmm13
	vaesenc	%zmm30,%zmm0,%zmm0
	vaesenc	%ymm30,%ymm3,%ymm3
	vbroadcastf64x2	128(%rdi),%zmm30
	vpternlogq	$0x96,%zmm16,%zmm11,%zmm10
	vpternlogq	$0x96,%zmm12,%zmm14,%zmm24
	vpternlogq	$0x96,%zmm13,%zmm7,%zmm25
	vpternlogq	$0x96,%zmm15,%zmm10,%zmm26
	vaesenc	%zmm31,%zmm0,%zmm0
	vaesenc	%ymm31,%ymm3,%ymm3
	vbroadcastf64x2	144(%rdi),%zmm31
	vaesenc	%zmm30,%zmm0,%zmm0
	vaesenc	%ymm30,%ymm3,%ymm3
	vbroadcastf64x2	160(%rdi),%zmm30
	vaesenc	%zmm31,%zmm0,%zmm0
	vaesenc	%ymm31,%ymm3,%ymm3
	vaesenclast	%zmm30,%zmm0,%zmm0
	vaesenclast	%ymm30,%ymm3,%ymm3
	vpxorq	%zmm17,%zmm0,%zmm0
	vpxorq	%ymm19,%ymm3,%ymm3
	vextracti32x4	$1,%zmm3,%xmm11
	movq	%r9,%r10
	vmovdqu8	%zmm0,0(%r10,%r11,1)
	vmovdqu8	%ymm3,64(%r10,%r11,1){%k1}
	vmovdqu8	%zmm3,%zmm3{%k1}{z}
	vpshufb	%zmm29,%zmm0,%zmm17
	vpshufb	%ymm29,%ymm3,%ymm19
	vextracti32x4	$1,%zmm19,%xmm7
	subq	$16 * (6 - 1),%r8


	cmpq	$16,%r8
	jl	.L_small_initial_partial_block_aeumprylhdyCdFt





	subq	$16,%r8
	movq	$0,(%rdx)
	vmovdqu64	256(%rsi),%zmm1
	vpclmulqdq	$0x11,%zmm1,%zmm17,%zmm8
	vpclmulqdq	$0x00,%zmm1,%zmm17,%zmm22
	vpclmulqdq	$0x01,%zmm1,%zmm17,%zmm30
	vpclmulqdq	$0x10,%zmm1,%zmm17,%zmm31
	vmovdqu64	320(%rsi),%ymm1
	vpclmulqdq	$0x01,%ymm1,%ymm19,%ymm4
	vpclmulqdq	$0x10,%ymm1,%ymm19,%ymm5
	vpclmulqdq	$0x11,%ymm1,%ymm19,%ymm0
	vpclmulqdq	$0x00,%ymm1,%ymm19,%ymm3

	vpxorq	%zmm30,%zmm4,%zmm4
	vpternlogq	$0x96,%zmm31,%zmm26,%zmm5
	vpternlogq	$0x96,%zmm8,%zmm24,%zmm0
	vpternlogq	$0x96,%zmm22,%zmm25,%zmm3

	vpxorq	%zmm5,%zmm4,%zmm4
	vpsrldq	$8,%zmm4,%zmm30
	vpslldq	$8,%zmm4,%zmm31
	vpxorq	%zmm30,%zmm0,%zmm0
	vpxorq	%zmm31,%zmm3,%zmm3
	vextracti64x4	$1,%zmm0,%ymm30
	vpxorq	%ymm30,%ymm0,%ymm0
	vextracti32x4	$1,%ymm0,%xmm30
	vpxorq	%xmm30,%xmm0,%xmm0
	vextracti64x4	$1,%zmm3,%ymm31
	vpxorq	%ymm31,%ymm3,%ymm3
	vextracti32x4	$1,%ymm3,%xmm31
	vpxorq	%xmm31,%xmm3,%xmm3
	vmovdqa64	POLY2(%rip),%xmm1


	vpclmulqdq	$0x01,%xmm3,%xmm1,%xmm4
	vpslldq	$8,%xmm4,%xmm4
	vpxorq	%xmm4,%xmm3,%xmm4


	vpclmulqdq	$0x00,%xmm4,%xmm1,%xmm5
	vpsrldq	$4,%xmm5,%xmm5
	vpclmulqdq	$0x10,%xmm4,%xmm1,%xmm14
	vpslldq	$4,%xmm14,%xmm14
	vpternlogq	$0x96,%xmm0,%xmm5,%xmm14

	jmp	.L_small_initial_compute_done_aeumprylhdyCdFt
.L_small_initial_partial_block_aeumprylhdyCdFt:








	movq	%r8,(%rdx)
	vmovdqu64	%xmm11,16(%rsi)
	vmovdqu64	272(%rsi),%zmm1
	vpclmulqdq	$0x11,%zmm1,%zmm17,%zmm8
	vpclmulqdq	$0x00,%zmm1,%zmm17,%zmm22
	vpclmulqdq	$0x01,%zmm1,%zmm17,%zmm30
	vpclmulqdq	$0x10,%zmm1,%zmm17,%zmm31
	vmovdqu64	336(%rsi),%xmm1
	vpclmulqdq	$0x01,%xmm1,%xmm19,%xmm4
	vpclmulqdq	$0x10,%xmm1,%xmm19,%xmm5
	vpclmulqdq	$0x11,%xmm1,%xmm19,%xmm0
	vpclmulqdq	$0x00,%xmm1,%xmm19,%xmm3

	vpxorq	%zmm30,%zmm4,%zmm4
	vpternlogq	$0x96,%zmm31,%zmm26,%zmm5
	vpternlogq	$0x96,%zmm8,%zmm24,%zmm0
	vpternlogq	$0x96,%zmm22,%zmm25,%zmm3

	vpxorq	%zmm5,%zmm4,%zmm4
	vpsrldq	$8,%zmm4,%zmm30
	vpslldq	$8,%zmm4,%zmm31
	vpxorq	%zmm30,%zmm0,%zmm0
	vpxorq	%zmm31,%zmm3,%zmm3
	vextracti64x4	$1,%zmm0,%ymm30
	vpxorq	%ymm30,%ymm0,%ymm0
	vextracti32x4	$1,%ymm0,%xmm30
	vpxorq	%xmm30,%xmm0,%xmm0
	vextracti64x4	$1,%zmm3,%ymm31
	vpxorq	%ymm31,%ymm3,%ymm3
	vextracti32x4	$1,%ymm3,%xmm31
	vpxorq	%xmm31,%xmm3,%xmm3
	vmovdqa64	POLY2(%rip),%xmm1


	vpclmulqdq	$0x01,%xmm3,%xmm1,%xmm4
	vpslldq	$8,%xmm4,%xmm4
	vpxorq	%xmm4,%xmm3,%xmm4


	vpclmulqdq	$0x00,%xmm4,%xmm1,%xmm5
	vpsrldq	$4,%xmm5,%xmm5
	vpclmulqdq	$0x10,%xmm4,%xmm1,%xmm14
	vpslldq	$4,%xmm14,%xmm14
	vpternlogq	$0x96,%xmm0,%xmm5,%xmm14

.L_small_initial_compute_done_aeumprylhdyCdFt:

	orq	%r8,%r8
	je	.L_after_reduction_aeumprylhdyCdFt
	vpxorq	%xmm7,%xmm14,%xmm14
.L_after_reduction_aeumprylhdyCdFt:
	jmp	.L_last_blocks_done_DykuFByfDftjliv
.L_last_num_blocks_is_7_DykuFByfDftjliv:
	leaq	byte64_len_to_mask_table(%rip),%r10
	movq	%r8,%rax
	subq	$64,%rax
	kmovq	(%r10,%rax,8),%k1
	cmpl	$249,%r15d
	jae	.L_16_blocks_overflow_abbnbkkFeDjEsaA
	vpaddd	%zmm28,%zmm2,%zmm0
	vpaddd	%zmm27,%zmm0,%zmm3
	jmp	.L_16_blocks_ok_abbnbkkFeDjEsaA

.L_16_blocks_overflow_abbnbkkFeDjEsaA:
	vpshufb	%zmm29,%zmm2,%zmm2
	vpaddd	ddq_add_1234(%rip),%zmm2,%zmm0
	vmovdqa64	ddq_add_4444(%rip),%zmm5
	vpaddd	%zmm5,%zmm0,%zmm3
	vpshufb	%zmm29,%zmm0,%zmm0
	vpshufb	%zmm29,%zmm3,%zmm3
.L_16_blocks_ok_abbnbkkFeDjEsaA:




	vbroadcastf64x2	0(%rdi),%zmm30
	vmovdqa64	1024(%rsp),%zmm8
	vmovdqu64	0(%rsp,%rbx,1),%zmm1
	vextracti32x4	$2,%zmm3,%xmm2
	vshufi64x2	$0,%zmm2,%zmm2,%zmm2


	vbroadcastf64x2	16(%rdi),%zmm31
	vmovdqu64	64(%rsp,%rbx,1),%zmm18
	vmovdqa64	1088(%rsp),%zmm22
	vpxorq	%zmm30,%zmm0,%zmm0
	vpxorq	%zmm30,%zmm3,%zmm3
	vbroadcastf64x2	32(%rdi),%zmm30


	vpclmulqdq	$0x11,%zmm1,%zmm8,%zmm14
	vpclmulqdq	$0x00,%zmm1,%zmm8,%zmm7
	vpclmulqdq	$0x01,%zmm1,%zmm8,%zmm10
	vpclmulqdq	$0x10,%zmm1,%zmm8,%zmm11
	vmovdqu64	128(%rsp,%rbx,1),%zmm1
	vmovdqa64	1152(%rsp),%zmm8
	vaesenc	%zmm31,%zmm0,%zmm0
	vaesenc	%zmm31,%zmm3,%zmm3
	vbroadcastf64x2	48(%rdi),%zmm31


	vpclmulqdq	$0x10,%zmm18,%zmm22,%zmm15
	vpclmulqdq	$0x01,%zmm18,%zmm22,%zmm16
	vpclmulqdq	$0x11,%zmm18,%zmm22,%zmm12
	vpclmulqdq	$0x00,%zmm18,%zmm22,%zmm13
	vmovdqu64	192(%rsp,%rbx,1),%zmm18
	vmovdqa64	1216(%rsp),%zmm22
	vaesenc	%zmm30,%zmm0,%zmm0
	vaesenc	%zmm30,%zmm3,%zmm3
	vbroadcastf64x2	64(%rdi),%zmm30


	vpclmulqdq	$0x10,%zmm1,%zmm8,%zmm20
	vpclmulqdq	$0x01,%zmm1,%zmm8,%zmm21
	vpclmulqdq	$0x11,%zmm1,%zmm8,%zmm17
	vpclmulqdq	$0x00,%zmm1,%zmm8,%zmm19
	vaesenc	%zmm31,%zmm0,%zmm0
	vaesenc	%zmm31,%zmm3,%zmm3
	vbroadcastf64x2	80(%rdi),%zmm31


	vpternlogq	$0x96,%zmm17,%zmm12,%zmm14
	vpternlogq	$0x96,%zmm19,%zmm13,%zmm7
	vpternlogq	$0x96,%zmm21,%zmm16,%zmm11
	vpternlogq	$0x96,%zmm20,%zmm15,%zmm10
	vaesenc	%zmm30,%zmm0,%zmm0
	vaesenc	%zmm30,%zmm3,%zmm3
	vbroadcastf64x2	96(%rdi),%zmm30
	vmovdqu8	0(%rcx,%r11,1),%zmm17
	vmovdqu8	64(%rcx,%r11,1),%zmm19{%k1}{z}
	vaesenc	%zmm31,%zmm0,%zmm0
	vaesenc	%zmm31,%zmm3,%zmm3
	vbroadcastf64x2	112(%rdi),%zmm31


	vpclmulqdq	$0x10,%zmm18,%zmm22,%zmm15
	vpclmulqdq	$0x01,%zmm18,%zmm22,%zmm16
	vpclmulqdq	$0x11,%zmm18,%zmm22,%zmm12
	vpclmulqdq	$0x00,%zmm18,%zmm22,%zmm13
	vaesenc	%zmm30,%zmm0,%zmm0
	vaesenc	%zmm30,%zmm3,%zmm3
	vbroadcastf64x2	128(%rdi),%zmm30
	vpternlogq	$0x96,%zmm16,%zmm11,%zmm10
	vpternlogq	$0x96,%zmm12,%zmm14,%zmm24
	vpternlogq	$0x96,%zmm13,%zmm7,%zmm25
	vpternlogq	$0x96,%zmm15,%zmm10,%zmm26
	vaesenc	%zmm31,%zmm0,%zmm0
	vaesenc	%zmm31,%zmm3,%zmm3
	vbroadcastf64x2	144(%rdi),%zmm31
	vaesenc	%zmm30,%zmm0,%zmm0
	vaesenc	%zmm30,%zmm3,%zmm3
	vbroadcastf64x2	160(%rdi),%zmm30
	vaesenc	%zmm31,%zmm0,%zmm0
	vaesenc	%zmm31,%zmm3,%zmm3
	vaesenclast	%zmm30,%zmm0,%zmm0
	vaesenclast	%zmm30,%zmm3,%zmm3
	vpxorq	%zmm17,%zmm0,%zmm0
	vpxorq	%zmm19,%zmm3,%zmm3
	vextracti32x4	$2,%zmm3,%xmm11
	movq	%r9,%r10
	vmovdqu8	%zmm0,0(%r10,%r11,1)
	vmovdqu8	%zmm3,64(%r10,%r11,1){%k1}
	vmovdqu8	%zmm3,%zmm3{%k1}{z}
	vpshufb	%zmm29,%zmm0,%zmm17
	vpshufb	%zmm29,%zmm3,%zmm19
	vextracti32x4	$2,%zmm19,%xmm7
	subq	$16 * (7 - 1),%r8


	cmpq	$16,%r8
	jl	.L_small_initial_partial_block_nvzCCiGpCvjdeze





	subq	$16,%r8
	movq	$0,(%rdx)
	vmovdqu64	240(%rsi),%zmm1
	vpclmulqdq	$0x11,%zmm1,%zmm17,%zmm8
	vpclmulqdq	$0x00,%zmm1,%zmm17,%zmm22
	vpclmulqdq	$0x01,%zmm1,%zmm17,%zmm30
	vpclmulqdq	$0x10,%zmm1,%zmm17,%zmm31
	vmovdqu64	304(%rsi),%ymm1
	vinserti64x2	$2,336(%rsi),%zmm1,%zmm1
	vpclmulqdq	$0x01,%zmm1,%zmm19,%zmm4
	vpclmulqdq	$0x10,%zmm1,%zmm19,%zmm5
	vpclmulqdq	$0x11,%zmm1,%zmm19,%zmm0
	vpclmulqdq	$0x00,%zmm1,%zmm19,%zmm3

	vpxorq	%zmm30,%zmm4,%zmm4
	vpternlogq	$0x96,%zmm31,%zmm26,%zmm5
	vpternlogq	$0x96,%zmm8,%zmm24,%zmm0
	vpternlogq	$0x96,%zmm22,%zmm25,%zmm3

	vpxorq	%zmm5,%zmm4,%zmm4
	vpsrldq	$8,%zmm4,%zmm30
	vpslldq	$8,%zmm4,%zmm31
	vpxorq	%zmm30,%zmm0,%zmm0
	vpxorq	%zmm31,%zmm3,%zmm3
	vextracti64x4	$1,%zmm0,%ymm30
	vpxorq	%ymm30,%ymm0,%ymm0
	vextracti32x4	$1,%ymm0,%xmm30
	vpxorq	%xmm30,%xmm0,%xmm0
	vextracti64x4	$1,%zmm3,%ymm31
	vpxorq	%ymm31,%ymm3,%ymm3
	vextracti32x4	$1,%ymm3,%xmm31
	vpxorq	%xmm31,%xmm3,%xmm3
	vmovdqa64	POLY2(%rip),%xmm1


	vpclmulqdq	$0x01,%xmm3,%xmm1,%xmm4
	vpslldq	$8,%xmm4,%xmm4
	vpxorq	%xmm4,%xmm3,%xmm4


	vpclmulqdq	$0x00,%xmm4,%xmm1,%xmm5
	vpsrldq	$4,%xmm5,%xmm5
	vpclmulqdq	$0x10,%xmm4,%xmm1,%xmm14
	vpslldq	$4,%xmm14,%xmm14
	vpternlogq	$0x96,%xmm0,%xmm5,%xmm14

	jmp	.L_small_initial_compute_done_nvzCCiGpCvjdeze
.L_small_initial_partial_block_nvzCCiGpCvjdeze:








	movq	%r8,(%rdx)
	vmovdqu64	%xmm11,16(%rsi)
	vmovdqu64	256(%rsi),%zmm1
	vpclmulqdq	$0x11,%zmm1,%zmm17,%zmm8
	vpclmulqdq	$0x00,%zmm1,%zmm17,%zmm22
	vpclmulqdq	$0x01,%zmm1,%zmm17,%zmm30
	vpclmulqdq	$0x10,%zmm1,%zmm17,%zmm31
	vmovdqu64	320(%rsi),%ymm1
	vpclmulqdq	$0x01,%ymm1,%ymm19,%ymm4
	vpclmulqdq	$0x10,%ymm1,%ymm19,%ymm5
	vpclmulqdq	$0x11,%ymm1,%ymm19,%ymm0
	vpclmulqdq	$0x00,%ymm1,%ymm19,%ymm3

	vpxorq	%zmm30,%zmm4,%zmm4
	vpternlogq	$0x96,%zmm31,%zmm26,%zmm5
	vpternlogq	$0x96,%zmm8,%zmm24,%zmm0
	vpternlogq	$0x96,%zmm22,%zmm25,%zmm3

	vpxorq	%zmm5,%zmm4,%zmm4
	vpsrldq	$8,%zmm4,%zmm30
	vpslldq	$8,%zmm4,%zmm31
	vpxorq	%zmm30,%zmm0,%zmm0
	vpxorq	%zmm31,%zmm3,%zmm3
	vextracti64x4	$1,%zmm0,%ymm30
	vpxorq	%ymm30,%ymm0,%ymm0
	vextracti32x4	$1,%ymm0,%xmm30
	vpxorq	%xmm30,%xmm0,%xmm0
	vextracti64x4	$1,%zmm3,%ymm31
	vpxorq	%ymm31,%ymm3,%ymm3
	vextracti32x4	$1,%ymm3,%xmm31
	vpxorq	%xmm31,%xmm3,%xmm3
	vmovdqa64	POLY2(%rip),%xmm1


	vpclmulqdq	$0x01,%xmm3,%xmm1,%xmm4
	vpslldq	$8,%xmm4,%xmm4
	vpxorq	%xmm4,%xmm3,%xmm4


	vpclmulqdq	$0x00,%xmm4,%xmm1,%xmm5
	vpsrldq	$4,%xmm5,%xmm5
	vpclmulqdq	$0x10,%xmm4,%xmm1,%xmm14
	vpslldq	$4,%xmm14,%xmm14
	vpternlogq	$0x96,%xmm0,%xmm5,%xmm14

.L_small_initial_compute_done_nvzCCiGpCvjdeze:

	orq	%r8,%r8
	je	.L_after_reduction_nvzCCiGpCvjdeze
	vpxorq	%xmm7,%xmm14,%xmm14
.L_after_reduction_nvzCCiGpCvjdeze:
	jmp	.L_last_blocks_done_DykuFByfDftjliv
.L_last_num_blocks_is_8_DykuFByfDftjliv:
	leaq	byte64_len_to_mask_table(%rip),%r10
	movq	%r8,%rax
	subq	$64,%rax
	kmovq	(%r10,%rax,8),%k1
	cmpl	$248,%r15d
	jae	.L_16_blocks_overflow_kCfElcpnzdybumf
	vpaddd	%zmm28,%zmm2,%zmm0
	vpaddd	%zmm27,%zmm0,%zmm3
	jmp	.L_16_blocks_ok_kCfElcpnzdybumf

.L_16_blocks_overflow_kCfElcpnzdybumf:
	vpshufb	%zmm29,%zmm2,%zmm2
	vpaddd	ddq_add_1234(%rip),%zmm2,%zmm0
	vmovdqa64	ddq_add_4444(%rip),%zmm5
	vpaddd	%zmm5,%zmm0,%zmm3
	vpshufb	%zmm29,%zmm0,%zmm0
	vpshufb	%zmm29,%zmm3,%zmm3
.L_16_blocks_ok_kCfElcpnzdybumf:




	vbroadcastf64x2	0(%rdi),%zmm30
	vmovdqa64	1024(%rsp),%zmm8
	vmovdqu64	0(%rsp,%rbx,1),%zmm1
	vextracti32x4	$3,%zmm3,%xmm2
	vshufi64x2	$0,%zmm2,%zmm2,%zmm2


	vbroadcastf64x2	16(%rdi),%zmm31
	vmovdqu64	64(%rsp,%rbx,1),%zmm18
	vmovdqa64	1088(%rsp),%zmm22
	vpxorq	%zmm30,%zmm0,%zmm0
	vpxorq	%zmm30,%zmm3,%zmm3
	vbroadcastf64x2	32(%rdi),%zmm30


	vpclmulqdq	$0x11,%zmm1,%zmm8,%zmm14
	vpclmulqdq	$0x00,%zmm1,%zmm8,%zmm7
	vpclmulqdq	$0x01,%zmm1,%zmm8,%zmm10
	vpclmulqdq	$0x10,%zmm1,%zmm8,%zmm11
	vmovdqu64	128(%rsp,%rbx,1),%zmm1
	vmovdqa64	1152(%rsp),%zmm8
	vaesenc	%zmm31,%zmm0,%zmm0
	vaesenc	%zmm31,%zmm3,%zmm3
	vbroadcastf64x2	48(%rdi),%zmm31


	vpclmulqdq	$0x10,%zmm18,%zmm22,%zmm15
	vpclmulqdq	$0x01,%zmm18,%zmm22,%zmm16
	vpclmulqdq	$0x11,%zmm18,%zmm22,%zmm12
	vpclmulqdq	$0x00,%zmm18,%zmm22,%zmm13
	vmovdqu64	192(%rsp,%rbx,1),%zmm18
	vmovdqa64	1216(%rsp),%zmm22
	vaesenc	%zmm30,%zmm0,%zmm0
	vaesenc	%zmm30,%zmm3,%zmm3
	vbroadcastf64x2	64(%rdi),%zmm30


	vpclmulqdq	$0x10,%zmm1,%zmm8,%zmm20
	vpclmulqdq	$0x01,%zmm1,%zmm8,%zmm21
	vpclmulqdq	$0x11,%zmm1,%zmm8,%zmm17
	vpclmulqdq	$0x00,%zmm1,%zmm8,%zmm19
	vaesenc	%zmm31,%zmm0,%zmm0
	vaesenc	%zmm31,%zmm3,%zmm3
	vbroadcastf64x2	80(%rdi),%zmm31


	vpternlogq	$0x96,%zmm17,%zmm12,%zmm14
	vpternlogq	$0x96,%zmm19,%zmm13,%zmm7
	vpternlogq	$0x96,%zmm21,%zmm16,%zmm11
	vpternlogq	$0x96,%zmm20,%zmm15,%zmm10
	vaesenc	%zmm30,%zmm0,%zmm0
	vaesenc	%zmm30,%zmm3,%zmm3
	vbroadcastf64x2	96(%rdi),%zmm30
	vmovdqu8	0(%rcx,%r11,1),%zmm17
	vmovdqu8	64(%rcx,%r11,1),%zmm19{%k1}{z}
	vaesenc	%zmm31,%zmm0,%zmm0
	vaesenc	%zmm31,%zmm3,%zmm3
	vbroadcastf64x2	112(%rdi),%zmm31


	vpclmulqdq	$0x10,%zmm18,%zmm22,%zmm15
	vpclmulqdq	$0x01,%zmm18,%zmm22,%zmm16
	vpclmulqdq	$0x11,%zmm18,%zmm22,%zmm12
	vpclmulqdq	$0x00,%zmm18,%zmm22,%zmm13
	vaesenc	%zmm30,%zmm0,%zmm0
	vaesenc	%zmm30,%zmm3,%zmm3
	vbroadcastf64x2	128(%rdi),%zmm30
	vpternlogq	$0x96,%zmm16,%zmm11,%zmm10
	vpternlogq	$0x96,%zmm12,%zmm14,%zmm24
	vpternlogq	$0x96,%zmm13,%zmm7,%zmm25
	vpternlogq	$0x96,%zmm15,%zmm10,%zmm26
	vaesenc	%zmm31,%zmm0,%zmm0
	vaesenc	%zmm31,%zmm3,%zmm3
	vbroadcastf64x2	144(%rdi),%zmm31
	vaesenc	%zmm30,%zmm0,%zmm0
	vaesenc	%zmm30,%zmm3,%zmm3
	vbroadcastf64x2	160(%rdi),%zmm30
	vaesenc	%zmm31,%zmm0,%zmm0
	vaesenc	%zmm31,%zmm3,%zmm3
	vaesenclast	%zmm30,%zmm0,%zmm0
	vaesenclast	%zmm30,%zmm3,%zmm3
	vpxorq	%zmm17,%zmm0,%zmm0
	vpxorq	%zmm19,%zmm3,%zmm3
	vextracti32x4	$3,%zmm3,%xmm11
	movq	%r9,%r10
	vmovdqu8	%zmm0,0(%r10,%r11,1)
	vmovdqu8	%zmm3,64(%r10,%r11,1){%k1}
	vmovdqu8	%zmm3,%zmm3{%k1}{z}
	vpshufb	%zmm29,%zmm0,%zmm17
	vpshufb	%zmm29,%zmm3,%zmm19
	vextracti32x4	$3,%zmm19,%xmm7
	subq	$16 * (8 - 1),%r8


	cmpq	$16,%r8
	jl	.L_small_initial_partial_block_tijkdCfjscGqfme





	subq	$16,%r8
	movq	$0,(%rdx)
	vmovdqu64	224(%rsi),%zmm1
	vpclmulqdq	$0x11,%zmm1,%zmm17,%zmm0
	vpclmulqdq	$0x00,%zmm1,%zmm17,%zmm3
	vpclmulqdq	$0x01,%zmm1,%zmm17,%zmm4
	vpclmulqdq	$0x10,%zmm1,%zmm17,%zmm5
	vmovdqu64	288(%rsi),%zmm1
	vpclmulqdq	$0x11,%zmm1,%zmm19,%zmm8
	vpclmulqdq	$0x00,%zmm1,%zmm19,%zmm22
	vpclmulqdq	$0x01,%zmm1,%zmm19,%zmm30
	vpclmulqdq	$0x10,%zmm1,%zmm19,%zmm31
	vpxorq	%zmm8,%zmm0,%zmm8
	vpxorq	%zmm22,%zmm3,%zmm22
	vpxorq	%zmm30,%zmm4,%zmm30
	vpxorq	%zmm31,%zmm5,%zmm31

	vpxorq	%zmm26,%zmm30,%zmm30
	vpxorq	%zmm24,%zmm8,%zmm8
	vpxorq	%zmm25,%zmm22,%zmm22

	vpxorq	%zmm31,%zmm30,%zmm30
	vpsrldq	$8,%zmm30,%zmm4
	vpslldq	$8,%zmm30,%zmm5
	vpxorq	%zmm4,%zmm8,%zmm0
	vpxorq	%zmm5,%zmm22,%zmm3
	vextracti64x4	$1,%zmm0,%ymm30
	vpxorq	%ymm30,%ymm0,%ymm0
	vextracti32x4	$1,%ymm0,%xmm30
	vpxorq	%xmm30,%xmm0,%xmm0
	vextracti64x4	$1,%zmm3,%ymm31
	vpxorq	%ymm31,%ymm3,%ymm3
	vextracti32x4	$1,%ymm3,%xmm31
	vpxorq	%xmm31,%xmm3,%xmm3
	vmovdqa64	POLY2(%rip),%xmm1


	vpclmulqdq	$0x01,%xmm3,%xmm1,%xmm4
	vpslldq	$8,%xmm4,%xmm4
	vpxorq	%xmm4,%xmm3,%xmm4


	vpclmulqdq	$0x00,%xmm4,%xmm1,%xmm5
	vpsrldq	$4,%xmm5,%xmm5
	vpclmulqdq	$0x10,%xmm4,%xmm1,%xmm14
	vpslldq	$4,%xmm14,%xmm14
	vpternlogq	$0x96,%xmm0,%xmm5,%xmm14

	jmp	.L_small_initial_compute_done_tijkdCfjscGqfme
.L_small_initial_partial_block_tijkdCfjscGqfme:








	movq	%r8,(%rdx)
	vmovdqu64	%xmm11,16(%rsi)
	vmovdqu64	240(%rsi),%zmm1
	vpclmulqdq	$0x11,%zmm1,%zmm17,%zmm8
	vpclmulqdq	$0x00,%zmm1,%zmm17,%zmm22
	vpclmulqdq	$0x01,%zmm1,%zmm17,%zmm30
	vpclmulqdq	$0x10,%zmm1,%zmm17,%zmm31
	vmovdqu64	304(%rsi),%ymm1
	vinserti64x2	$2,336(%rsi),%zmm1,%zmm1
	vpclmulqdq	$0x01,%zmm1,%zmm19,%zmm4
	vpclmulqdq	$0x10,%zmm1,%zmm19,%zmm5
	vpclmulqdq	$0x11,%zmm1,%zmm19,%zmm0
	vpclmulqdq	$0x00,%zmm1,%zmm19,%zmm3

	vpxorq	%zmm30,%zmm4,%zmm4
	vpternlogq	$0x96,%zmm31,%zmm26,%zmm5
	vpternlogq	$0x96,%zmm8,%zmm24,%zmm0
	vpternlogq	$0x96,%zmm22,%zmm25,%zmm3

	vpxorq	%zmm5,%zmm4,%zmm4
	vpsrldq	$8,%zmm4,%zmm30
	vpslldq	$8,%zmm4,%zmm31
	vpxorq	%zmm30,%zmm0,%zmm0
	vpxorq	%zmm31,%zmm3,%zmm3
	vextracti64x4	$1,%zmm0,%ymm30
	vpxorq	%ymm30,%ymm0,%ymm0
	vextracti32x4	$1,%ymm0,%xmm30
	vpxorq	%xmm30,%xmm0,%xmm0
	vextracti64x4	$1,%zmm3,%ymm31
	vpxorq	%ymm31,%ymm3,%ymm3
	vextracti32x4	$1,%ymm3,%xmm31
	vpxorq	%xmm31,%xmm3,%xmm3
	vmovdqa64	POLY2(%rip),%xmm1


	vpclmulqdq	$0x01,%xmm3,%xmm1,%xmm4
	vpslldq	$8,%xmm4,%xmm4
	vpxorq	%xmm4,%xmm3,%xmm4


	vpclmulqdq	$0x00,%xmm4,%xmm1,%xmm5
	vpsrldq	$4,%xmm5,%xmm5
	vpclmulqdq	$0x10,%xmm4,%xmm1,%xmm14
	vpslldq	$4,%xmm14,%xmm14
	vpternlogq	$0x96,%xmm0,%xmm5,%xmm14

.L_small_initial_compute_done_tijkdCfjscGqfme:

	orq	%r8,%r8
	je	.L_after_reduction_tijkdCfjscGqfme
	vpxorq	%xmm7,%xmm14,%xmm14
.L_after_reduction_tijkdCfjscGqfme:
	jmp	.L_last_blocks_done_DykuFByfDftjliv
.L_last_num_blocks_is_9_DykuFByfDftjliv:
	leaq	byte64_len_to_mask_table(%rip),%r10
	movq	%r8,%rax
	subq	$128,%rax
	kmovq	(%r10,%rax,8),%k1
	cmpl	$247,%r15d
	jae	.L_16_blocks_overflow_osdjeawdhCCoguf
	vpaddd	%zmm28,%zmm2,%zmm0
	vpaddd	%zmm27,%zmm0,%zmm3
	vpaddd	%xmm27,%xmm3,%xmm4
	jmp	.L_16_blocks_ok_osdjeawdhCCoguf

.L_16_blocks_overflow_osdjeawdhCCoguf:
	vpshufb	%zmm29,%zmm2,%zmm2
	vpaddd	ddq_add_1234(%rip),%zmm2,%zmm0
	vmovdqa64	ddq_add_4444(%rip),%zmm5
	vpaddd	%zmm5,%zmm0,%zmm3
	vpaddd	%zmm5,%zmm3,%zmm4
	vpshufb	%zmm29,%zmm0,%zmm0
	vpshufb	%zmm29,%zmm3,%zmm3
	vpshufb	%xmm29,%xmm4,%xmm4
.L_16_blocks_ok_osdjeawdhCCoguf:




	vbroadcastf64x2	0(%rdi),%zmm30
	vmovdqa64	1024(%rsp),%zmm8
	vmovdqu64	0(%rsp,%rbx,1),%zmm1
	vextracti32x4	$0,%zmm4,%xmm2
	vshufi64x2	$0,%zmm2,%zmm2,%zmm2


	vbroadcastf64x2	16(%rdi),%zmm31
	vmovdqu64	64(%rsp,%rbx,1),%zmm18
	vmovdqa64	1088(%rsp),%zmm22
	vpxorq	%zmm30,%zmm0,%zmm0
	vpxorq	%zmm30,%zmm3,%zmm3
	vpxorq	%xmm30,%xmm4,%xmm4
	vbroadcastf64x2	32(%rdi),%zmm30


	vpclmulqdq	$0x11,%zmm1,%zmm8,%zmm14
	vpclmulqdq	$0x00,%zmm1,%zmm8,%zmm7
	vpclmulqdq	$0x01,%zmm1,%zmm8,%zmm10
	vpclmulqdq	$0x10,%zmm1,%zmm8,%zmm11
	vmovdqu64	128(%rsp,%rbx,1),%zmm1
	vmovdqa64	1152(%rsp),%zmm8
	vaesenc	%zmm31,%zmm0,%zmm0
	vaesenc	%zmm31,%zmm3,%zmm3
	vaesenc	%xmm31,%xmm4,%xmm4
	vbroadcastf64x2	48(%rdi),%zmm31


	vpclmulqdq	$0x10,%zmm18,%zmm22,%zmm15
	vpclmulqdq	$0x01,%zmm18,%zmm22,%zmm16
	vpclmulqdq	$0x11,%zmm18,%zmm22,%zmm12
	vpclmulqdq	$0x00,%zmm18,%zmm22,%zmm13
	vmovdqu64	192(%rsp,%rbx,1),%zmm18
	vmovdqa64	1216(%rsp),%zmm22
	vaesenc	%zmm30,%zmm0,%zmm0
	vaesenc	%zmm30,%zmm3,%zmm3
	vaesenc	%xmm30,%xmm4,%xmm4
	vbroadcastf64x2	64(%rdi),%zmm30


	vpclmulqdq	$0x10,%zmm1,%zmm8,%zmm20
	vpclmulqdq	$0x01,%zmm1,%zmm8,%zmm21
	vpclmulqdq	$0x11,%zmm1,%zmm8,%zmm17
	vpclmulqdq	$0x00,%zmm1,%zmm8,%zmm19
	vaesenc	%zmm31,%zmm0,%zmm0
	vaesenc	%zmm31,%zmm3,%zmm3
	vaesenc	%xmm31,%xmm4,%xmm4
	vbroadcastf64x2	80(%rdi),%zmm31


	vpternlogq	$0x96,%zmm17,%zmm12,%zmm14
	vpternlogq	$0x96,%zmm19,%zmm13,%zmm7
	vpternlogq	$0x96,%zmm21,%zmm16,%zmm11
	vpternlogq	$0x96,%zmm20,%zmm15,%zmm10
	vaesenc	%zmm30,%zmm0,%zmm0
	vaesenc	%zmm30,%zmm3,%zmm3
	vaesenc	%xmm30,%xmm4,%xmm4
	vbroadcastf64x2	96(%rdi),%zmm30
	vmovdqu8	0(%rcx,%r11,1),%zmm17
	vmovdqu8	64(%rcx,%r11,1),%zmm19
	vmovdqu8	128(%rcx,%r11,1),%xmm20{%k1}{z}
	vaesenc	%zmm31,%zmm0,%zmm0
	vaesenc	%zmm31,%zmm3,%zmm3
	vaesenc	%xmm31,%xmm4,%xmm4
	vbroadcastf64x2	112(%rdi),%zmm31


	vpclmulqdq	$0x10,%zmm18,%zmm22,%zmm15
	vpclmulqdq	$0x01,%zmm18,%zmm22,%zmm16
	vpclmulqdq	$0x11,%zmm18,%zmm22,%zmm12
	vpclmulqdq	$0x00,%zmm18,%zmm22,%zmm13
	vaesenc	%zmm30,%zmm0,%zmm0
	vaesenc	%zmm30,%zmm3,%zmm3
	vaesenc	%xmm30,%xmm4,%xmm4
	vbroadcastf64x2	128(%rdi),%zmm30
	vpternlogq	$0x96,%zmm16,%zmm11,%zmm10
	vpternlogq	$0x96,%zmm12,%zmm14,%zmm24
	vpternlogq	$0x96,%zmm13,%zmm7,%zmm25
	vpternlogq	$0x96,%zmm15,%zmm10,%zmm26
	vaesenc	%zmm31,%zmm0,%zmm0
	vaesenc	%zmm31,%zmm3,%zmm3
	vaesenc	%xmm31,%xmm4,%xmm4
	vbroadcastf64x2	144(%rdi),%zmm31
	vaesenc	%zmm30,%zmm0,%zmm0
	vaesenc	%zmm30,%zmm3,%zmm3
	vaesenc	%xmm30,%xmm4,%xmm4
	vbroadcastf64x2	160(%rdi),%zmm30
	vaesenc	%zmm31,%zmm0,%zmm0
	vaesenc	%zmm31,%zmm3,%zmm3
	vaesenc	%xmm31,%xmm4,%xmm4
	vaesenclast	%zmm30,%zmm0,%zmm0
	vaesenclast	%zmm30,%zmm3,%zmm3
	vaesenclast	%xmm30,%xmm4,%xmm4
	vpxorq	%zmm17,%zmm0,%zmm0
	vpxorq	%zmm19,%zmm3,%zmm3
	vpxorq	%xmm20,%xmm4,%xmm4
	vextracti32x4	$0,%zmm4,%xmm11
	movq	%r9,%r10
	vmovdqu8	%zmm0,0(%r10,%r11,1)
	vmovdqu8	%zmm3,64(%r10,%r11,1)
	vmovdqu8	%xmm4,128(%r10,%r11,1){%k1}
	vmovdqu8	%zmm4,%zmm4{%k1}{z}
	vpshufb	%zmm29,%zmm0,%zmm17
	vpshufb	%zmm29,%zmm3,%zmm19
	vpshufb	%xmm29,%xmm4,%xmm20
	vextracti32x4	$0,%zmm20,%xmm7
	subq	$16 * (9 - 1),%r8


	cmpq	$16,%r8
	jl	.L_small_initial_partial_block_epdABvCnybGdsdo





	subq	$16,%r8
	movq	$0,(%rdx)
	vmovdqu64	208(%rsi),%zmm1
	vpclmulqdq	$0x11,%zmm1,%zmm17,%zmm0
	vpclmulqdq	$0x00,%zmm1,%zmm17,%zmm3
	vpclmulqdq	$0x01,%zmm1,%zmm17,%zmm4
	vpclmulqdq	$0x10,%zmm1,%zmm17,%zmm5
	vmovdqu64	272(%rsi),%zmm1
	vpclmulqdq	$0x11,%zmm1,%zmm19,%zmm8
	vpclmulqdq	$0x00,%zmm1,%zmm19,%zmm22
	vpclmulqdq	$0x01,%zmm1,%zmm19,%zmm30
	vpclmulqdq	$0x10,%zmm1,%zmm19,%zmm31
	vpxorq	%zmm8,%zmm0,%zmm8
	vpxorq	%zmm22,%zmm3,%zmm22
	vpxorq	%zmm30,%zmm4,%zmm30
	vpxorq	%zmm31,%zmm5,%zmm31
	vmovdqu64	336(%rsi),%xmm1
	vpclmulqdq	$0x01,%xmm1,%xmm20,%xmm4
	vpclmulqdq	$0x10,%xmm1,%xmm20,%xmm5
	vpclmulqdq	$0x11,%xmm1,%xmm20,%xmm0
	vpclmulqdq	$0x00,%xmm1,%xmm20,%xmm3

	vpxorq	%zmm30,%zmm4,%zmm4
	vpternlogq	$0x96,%zmm31,%zmm26,%zmm5
	vpternlogq	$0x96,%zmm8,%zmm24,%zmm0
	vpternlogq	$0x96,%zmm22,%zmm25,%zmm3

	vpxorq	%zmm5,%zmm4,%zmm4
	vpsrldq	$8,%zmm4,%zmm30
	vpslldq	$8,%zmm4,%zmm31
	vpxorq	%zmm30,%zmm0,%zmm0
	vpxorq	%zmm31,%zmm3,%zmm3
	vextracti64x4	$1,%zmm0,%ymm30
	vpxorq	%ymm30,%ymm0,%ymm0
	vextracti32x4	$1,%ymm0,%xmm30
	vpxorq	%xmm30,%xmm0,%xmm0
	vextracti64x4	$1,%zmm3,%ymm31
	vpxorq	%ymm31,%ymm3,%ymm3
	vextracti32x4	$1,%ymm3,%xmm31
	vpxorq	%xmm31,%xmm3,%xmm3
	vmovdqa64	POLY2(%rip),%xmm1


	vpclmulqdq	$0x01,%xmm3,%xmm1,%xmm4
	vpslldq	$8,%xmm4,%xmm4
	vpxorq	%xmm4,%xmm3,%xmm4


	vpclmulqdq	$0x00,%xmm4,%xmm1,%xmm5
	vpsrldq	$4,%xmm5,%xmm5
	vpclmulqdq	$0x10,%xmm4,%xmm1,%xmm14
	vpslldq	$4,%xmm14,%xmm14
	vpternlogq	$0x96,%xmm0,%xmm5,%xmm14

	jmp	.L_small_initial_compute_done_epdABvCnybGdsdo
.L_small_initial_partial_block_epdABvCnybGdsdo:








	movq	%r8,(%rdx)
	vmovdqu64	%xmm11,16(%rsi)
	vmovdqu64	224(%rsi),%zmm1
	vpclmulqdq	$0x11,%zmm1,%zmm17,%zmm0
	vpclmulqdq	$0x00,%zmm1,%zmm17,%zmm3
	vpclmulqdq	$0x01,%zmm1,%zmm17,%zmm4
	vpclmulqdq	$0x10,%zmm1,%zmm17,%zmm5
	vmovdqu64	288(%rsi),%zmm1
	vpclmulqdq	$0x11,%zmm1,%zmm19,%zmm8
	vpclmulqdq	$0x00,%zmm1,%zmm19,%zmm22
	vpclmulqdq	$0x01,%zmm1,%zmm19,%zmm30
	vpclmulqdq	$0x10,%zmm1,%zmm19,%zmm31
	vpxorq	%zmm8,%zmm0,%zmm8
	vpxorq	%zmm22,%zmm3,%zmm22
	vpxorq	%zmm30,%zmm4,%zmm30
	vpxorq	%zmm31,%zmm5,%zmm31

	vpxorq	%zmm26,%zmm30,%zmm30
	vpxorq	%zmm24,%zmm8,%zmm8
	vpxorq	%zmm25,%zmm22,%zmm22

	vpxorq	%zmm31,%zmm30,%zmm30
	vpsrldq	$8,%zmm30,%zmm4
	vpslldq	$8,%zmm30,%zmm5
	vpxorq	%zmm4,%zmm8,%zmm0
	vpxorq	%zmm5,%zmm22,%zmm3
	vextracti64x4	$1,%zmm0,%ymm30
	vpxorq	%ymm30,%ymm0,%ymm0
	vextracti32x4	$1,%ymm0,%xmm30
	vpxorq	%xmm30,%xmm0,%xmm0
	vextracti64x4	$1,%zmm3,%ymm31
	vpxorq	%ymm31,%ymm3,%ymm3
	vextracti32x4	$1,%ymm3,%xmm31
	vpxorq	%xmm31,%xmm3,%xmm3
	vmovdqa64	POLY2(%rip),%xmm1


	vpclmulqdq	$0x01,%xmm3,%xmm1,%xmm4
	vpslldq	$8,%xmm4,%xmm4
	vpxorq	%xmm4,%xmm3,%xmm4


	vpclmulqdq	$0x00,%xmm4,%xmm1,%xmm5
	vpsrldq	$4,%xmm5,%xmm5
	vpclmulqdq	$0x10,%xmm4,%xmm1,%xmm14
	vpslldq	$4,%xmm14,%xmm14
	vpternlogq	$0x96,%xmm0,%xmm5,%xmm14

.L_small_initial_compute_done_epdABvCnybGdsdo:

	orq	%r8,%r8
	je	.L_after_reduction_epdABvCnybGdsdo
	vpxorq	%xmm7,%xmm14,%xmm14
.L_after_reduction_epdABvCnybGdsdo:
	jmp	.L_last_blocks_done_DykuFByfDftjliv
.L_last_num_blocks_is_10_DykuFByfDftjliv:
	leaq	byte64_len_to_mask_table(%rip),%r10
	movq	%r8,%rax
	subq	$128,%rax
	kmovq	(%r10,%rax,8),%k1
	cmpl	$246,%r15d
	jae	.L_16_blocks_overflow_jwAubjtEtyoinuw
	vpaddd	%zmm28,%zmm2,%zmm0
	vpaddd	%zmm27,%zmm0,%zmm3
	vpaddd	%ymm27,%ymm3,%ymm4
	jmp	.L_16_blocks_ok_jwAubjtEtyoinuw

.L_16_blocks_overflow_jwAubjtEtyoinuw:
	vpshufb	%zmm29,%zmm2,%zmm2
	vpaddd	ddq_add_1234(%rip),%zmm2,%zmm0
	vmovdqa64	ddq_add_4444(%rip),%zmm5
	vpaddd	%zmm5,%zmm0,%zmm3
	vpaddd	%zmm5,%zmm3,%zmm4
	vpshufb	%zmm29,%zmm0,%zmm0
	vpshufb	%zmm29,%zmm3,%zmm3
	vpshufb	%ymm29,%ymm4,%ymm4
.L_16_blocks_ok_jwAubjtEtyoinuw:




	vbroadcastf64x2	0(%rdi),%zmm30
	vmovdqa64	1024(%rsp),%zmm8
	vmovdqu64	0(%rsp,%rbx,1),%zmm1
	vextracti32x4	$1,%zmm4,%xmm2
	vshufi64x2	$0,%zmm2,%zmm2,%zmm2


	vbroadcastf64x2	16(%rdi),%zmm31
	vmovdqu64	64(%rsp,%rbx,1),%zmm18
	vmovdqa64	1088(%rsp),%zmm22
	vpxorq	%zmm30,%zmm0,%zmm0
	vpxorq	%zmm30,%zmm3,%zmm3
	vpxorq	%ymm30,%ymm4,%ymm4
	vbroadcastf64x2	32(%rdi),%zmm30


	vpclmulqdq	$0x11,%zmm1,%zmm8,%zmm14
	vpclmulqdq	$0x00,%zmm1,%zmm8,%zmm7
	vpclmulqdq	$0x01,%zmm1,%zmm8,%zmm10
	vpclmulqdq	$0x10,%zmm1,%zmm8,%zmm11
	vmovdqu64	128(%rsp,%rbx,1),%zmm1
	vmovdqa64	1152(%rsp),%zmm8
	vaesenc	%zmm31,%zmm0,%zmm0
	vaesenc	%zmm31,%zmm3,%zmm3
	vaesenc	%ymm31,%ymm4,%ymm4
	vbroadcastf64x2	48(%rdi),%zmm31


	vpclmulqdq	$0x10,%zmm18,%zmm22,%zmm15
	vpclmulqdq	$0x01,%zmm18,%zmm22,%zmm16
	vpclmulqdq	$0x11,%zmm18,%zmm22,%zmm12
	vpclmulqdq	$0x00,%zmm18,%zmm22,%zmm13
	vmovdqu64	192(%rsp,%rbx,1),%zmm18
	vmovdqa64	1216(%rsp),%zmm22
	vaesenc	%zmm30,%zmm0,%zmm0
	vaesenc	%zmm30,%zmm3,%zmm3
	vaesenc	%ymm30,%ymm4,%ymm4
	vbroadcastf64x2	64(%rdi),%zmm30


	vpclmulqdq	$0x10,%zmm1,%zmm8,%zmm20
	vpclmulqdq	$0x01,%zmm1,%zmm8,%zmm21
	vpclmulqdq	$0x11,%zmm1,%zmm8,%zmm17
	vpclmulqdq	$0x00,%zmm1,%zmm8,%zmm19
	vaesenc	%zmm31,%zmm0,%zmm0
	vaesenc	%zmm31,%zmm3,%zmm3
	vaesenc	%ymm31,%ymm4,%ymm4
	vbroadcastf64x2	80(%rdi),%zmm31


	vpternlogq	$0x96,%zmm17,%zmm12,%zmm14
	vpternlogq	$0x96,%zmm19,%zmm13,%zmm7
	vpternlogq	$0x96,%zmm21,%zmm16,%zmm11
	vpternlogq	$0x96,%zmm20,%zmm15,%zmm10
	vaesenc	%zmm30,%zmm0,%zmm0
	vaesenc	%zmm30,%zmm3,%zmm3
	vaesenc	%ymm30,%ymm4,%ymm4
	vbroadcastf64x2	96(%rdi),%zmm30
	vmovdqu8	0(%rcx,%r11,1),%zmm17
	vmovdqu8	64(%rcx,%r11,1),%zmm19
	vmovdqu8	128(%rcx,%r11,1),%ymm20{%k1}{z}
	vaesenc	%zmm31,%zmm0,%zmm0
	vaesenc	%zmm31,%zmm3,%zmm3
	vaesenc	%ymm31,%ymm4,%ymm4
	vbroadcastf64x2	112(%rdi),%zmm31


	vpclmulqdq	$0x10,%zmm18,%zmm22,%zmm15
	vpclmulqdq	$0x01,%zmm18,%zmm22,%zmm16
	vpclmulqdq	$0x11,%zmm18,%zmm22,%zmm12
	vpclmulqdq	$0x00,%zmm18,%zmm22,%zmm13
	vaesenc	%zmm30,%zmm0,%zmm0
	vaesenc	%zmm30,%zmm3,%zmm3
	vaesenc	%ymm30,%ymm4,%ymm4
	vbroadcastf64x2	128(%rdi),%zmm30
	vpternlogq	$0x96,%zmm16,%zmm11,%zmm10
	vpternlogq	$0x96,%zmm12,%zmm14,%zmm24
	vpternlogq	$0x96,%zmm13,%zmm7,%zmm25
	vpternlogq	$0x96,%zmm15,%zmm10,%zmm26
	vaesenc	%zmm31,%zmm0,%zmm0
	vaesenc	%zmm31,%zmm3,%zmm3
	vaesenc	%ymm31,%ymm4,%ymm4
	vbroadcastf64x2	144(%rdi),%zmm31
	vaesenc	%zmm30,%zmm0,%zmm0
	vaesenc	%zmm30,%zmm3,%zmm3
	vaesenc	%ymm30,%ymm4,%ymm4
	vbroadcastf64x2	160(%rdi),%zmm30
	vaesenc	%zmm31,%zmm0,%zmm0
	vaesenc	%zmm31,%zmm3,%zmm3
	vaesenc	%ymm31,%ymm4,%ymm4
	vaesenclast	%zmm30,%zmm0,%zmm0
	vaesenclast	%zmm30,%zmm3,%zmm3
	vaesenclast	%ymm30,%ymm4,%ymm4
	vpxorq	%zmm17,%zmm0,%zmm0
	vpxorq	%zmm19,%zmm3,%zmm3
	vpxorq	%ymm20,%ymm4,%ymm4
	vextracti32x4	$1,%zmm4,%xmm11
	movq	%r9,%r10
	vmovdqu8	%zmm0,0(%r10,%r11,1)
	vmovdqu8	%zmm3,64(%r10,%r11,1)
	vmovdqu8	%ymm4,128(%r10,%r11,1){%k1}
	vmovdqu8	%zmm4,%zmm4{%k1}{z}
	vpshufb	%zmm29,%zmm0,%zmm17
	vpshufb	%zmm29,%zmm3,%zmm19
	vpshufb	%ymm29,%ymm4,%ymm20
	vextracti32x4	$1,%zmm20,%xmm7
	subq	$16 * (10 - 1),%r8


	cmpq	$16,%r8
	jl	.L_small_initial_partial_block_kelFyecDtuiEexx





	subq	$16,%r8
	movq	$0,(%rdx)
	vmovdqu64	192(%rsi),%zmm1
	vpclmulqdq	$0x11,%zmm1,%zmm17,%zmm0
	vpclmulqdq	$0x00,%zmm1,%zmm17,%zmm3
	vpclmulqdq	$0x01,%zmm1,%zmm17,%zmm4
	vpclmulqdq	$0x10,%zmm1,%zmm17,%zmm5
	vmovdqu64	256(%rsi),%zmm1
	vpclmulqdq	$0x11,%zmm1,%zmm19,%zmm8
	vpclmulqdq	$0x00,%zmm1,%zmm19,%zmm22
	vpclmulqdq	$0x01,%zmm1,%zmm19,%zmm30
	vpclmulqdq	$0x10,%zmm1,%zmm19,%zmm31
	vpxorq	%zmm8,%zmm0,%zmm8
	vpxorq	%zmm22,%zmm3,%zmm22
	vpxorq	%zmm30,%zmm4,%zmm30
	vpxorq	%zmm31,%zmm5,%zmm31
	vmovdqu64	320(%rsi),%ymm1
	vpclmulqdq	$0x01,%ymm1,%ymm20,%ymm4
	vpclmulqdq	$0x10,%ymm1,%ymm20,%ymm5
	vpclmulqdq	$0x11,%ymm1,%ymm20,%ymm0
	vpclmulqdq	$0x00,%ymm1,%ymm20,%ymm3

	vpxorq	%zmm30,%zmm4,%zmm4
	vpternlogq	$0x96,%zmm31,%zmm26,%zmm5
	vpternlogq	$0x96,%zmm8,%zmm24,%zmm0
	vpternlogq	$0x96,%zmm22,%zmm25,%zmm3

	vpxorq	%zmm5,%zmm4,%zmm4
	vpsrldq	$8,%zmm4,%zmm30
	vpslldq	$8,%zmm4,%zmm31
	vpxorq	%zmm30,%zmm0,%zmm0
	vpxorq	%zmm31,%zmm3,%zmm3
	vextracti64x4	$1,%zmm0,%ymm30
	vpxorq	%ymm30,%ymm0,%ymm0
	vextracti32x4	$1,%ymm0,%xmm30
	vpxorq	%xmm30,%xmm0,%xmm0
	vextracti64x4	$1,%zmm3,%ymm31
	vpxorq	%ymm31,%ymm3,%ymm3
	vextracti32x4	$1,%ymm3,%xmm31
	vpxorq	%xmm31,%xmm3,%xmm3
	vmovdqa64	POLY2(%rip),%xmm1


	vpclmulqdq	$0x01,%xmm3,%xmm1,%xmm4
	vpslldq	$8,%xmm4,%xmm4
	vpxorq	%xmm4,%xmm3,%xmm4


	vpclmulqdq	$0x00,%xmm4,%xmm1,%xmm5
	vpsrldq	$4,%xmm5,%xmm5
	vpclmulqdq	$0x10,%xmm4,%xmm1,%xmm14
	vpslldq	$4,%xmm14,%xmm14
	vpternlogq	$0x96,%xmm0,%xmm5,%xmm14

	jmp	.L_small_initial_compute_done_kelFyecDtuiEexx
.L_small_initial_partial_block_kelFyecDtuiEexx:








	movq	%r8,(%rdx)
	vmovdqu64	%xmm11,16(%rsi)
	vmovdqu64	208(%rsi),%zmm1
	vpclmulqdq	$0x11,%zmm1,%zmm17,%zmm0
	vpclmulqdq	$0x00,%zmm1,%zmm17,%zmm3
	vpclmulqdq	$0x01,%zmm1,%zmm17,%zmm4
	vpclmulqdq	$0x10,%zmm1,%zmm17,%zmm5
	vmovdqu64	272(%rsi),%zmm1
	vpclmulqdq	$0x11,%zmm1,%zmm19,%zmm8
	vpclmulqdq	$0x00,%zmm1,%zmm19,%zmm22
	vpclmulqdq	$0x01,%zmm1,%zmm19,%zmm30
	vpclmulqdq	$0x10,%zmm1,%zmm19,%zmm31
	vpxorq	%zmm8,%zmm0,%zmm8
	vpxorq	%zmm22,%zmm3,%zmm22
	vpxorq	%zmm30,%zmm4,%zmm30
	vpxorq	%zmm31,%zmm5,%zmm31
	vmovdqu64	336(%rsi),%xmm1
	vpclmulqdq	$0x01,%xmm1,%xmm20,%xmm4
	vpclmulqdq	$0x10,%xmm1,%xmm20,%xmm5
	vpclmulqdq	$0x11,%xmm1,%xmm20,%xmm0
	vpclmulqdq	$0x00,%xmm1,%xmm20,%xmm3

	vpxorq	%zmm30,%zmm4,%zmm4
	vpternlogq	$0x96,%zmm31,%zmm26,%zmm5
	vpternlogq	$0x96,%zmm8,%zmm24,%zmm0
	vpternlogq	$0x96,%zmm22,%zmm25,%zmm3

	vpxorq	%zmm5,%zmm4,%zmm4
	vpsrldq	$8,%zmm4,%zmm30
	vpslldq	$8,%zmm4,%zmm31
	vpxorq	%zmm30,%zmm0,%zmm0
	vpxorq	%zmm31,%zmm3,%zmm3
	vextracti64x4	$1,%zmm0,%ymm30
	vpxorq	%ymm30,%ymm0,%ymm0
	vextracti32x4	$1,%ymm0,%xmm30
	vpxorq	%xmm30,%xmm0,%xmm0
	vextracti64x4	$1,%zmm3,%ymm31
	vpxorq	%ymm31,%ymm3,%ymm3
	vextracti32x4	$1,%ymm3,%xmm31
	vpxorq	%xmm31,%xmm3,%xmm3
	vmovdqa64	POLY2(%rip),%xmm1


	vpclmulqdq	$0x01,%xmm3,%xmm1,%xmm4
	vpslldq	$8,%xmm4,%xmm4
	vpxorq	%xmm4,%xmm3,%xmm4


	vpclmulqdq	$0x00,%xmm4,%xmm1,%xmm5
	vpsrldq	$4,%xmm5,%xmm5
	vpclmulqdq	$0x10,%xmm4,%xmm1,%xmm14
	vpslldq	$4,%xmm14,%xmm14
	vpternlogq	$0x96,%xmm0,%xmm5,%xmm14

.L_small_initial_compute_done_kelFyecDtuiEexx:

	orq	%r8,%r8
	je	.L_after_reduction_kelFyecDtuiEexx
	vpxorq	%xmm7,%xmm14,%xmm14
.L_after_reduction_kelFyecDtuiEexx:
	jmp	.L_last_blocks_done_DykuFByfDftjliv
.L_last_num_blocks_is_11_DykuFByfDftjliv:
	leaq	byte64_len_to_mask_table(%rip),%r10
	movq	%r8,%rax
	subq	$128,%rax
	kmovq	(%r10,%rax,8),%k1
	cmpl	$245,%r15d
	jae	.L_16_blocks_overflow_AAxxmyocwaeogrE
	vpaddd	%zmm28,%zmm2,%zmm0
	vpaddd	%zmm27,%zmm0,%zmm3
	vpaddd	%zmm27,%zmm3,%zmm4
	jmp	.L_16_blocks_ok_AAxxmyocwaeogrE

.L_16_blocks_overflow_AAxxmyocwaeogrE:
	vpshufb	%zmm29,%zmm2,%zmm2
	vpaddd	ddq_add_1234(%rip),%zmm2,%zmm0
	vmovdqa64	ddq_add_4444(%rip),%zmm5
	vpaddd	%zmm5,%zmm0,%zmm3
	vpaddd	%zmm5,%zmm3,%zmm4
	vpshufb	%zmm29,%zmm0,%zmm0
	vpshufb	%zmm29,%zmm3,%zmm3
	vpshufb	%zmm29,%zmm4,%zmm4
.L_16_blocks_ok_AAxxmyocwaeogrE:




	vbroadcastf64x2	0(%rdi),%zmm30
	vmovdqa64	1024(%rsp),%zmm8
	vmovdqu64	0(%rsp,%rbx,1),%zmm1
	vextracti32x4	$2,%zmm4,%xmm2
	vshufi64x2	$0,%zmm2,%zmm2,%zmm2


	vbroadcastf64x2	16(%rdi),%zmm31
	vmovdqu64	64(%rsp,%rbx,1),%zmm18
	vmovdqa64	1088(%rsp),%zmm22
	vpxorq	%zmm30,%zmm0,%zmm0
	vpxorq	%zmm30,%zmm3,%zmm3
	vpxorq	%zmm30,%zmm4,%zmm4
	vbroadcastf64x2	32(%rdi),%zmm30


	vpclmulqdq	$0x11,%zmm1,%zmm8,%zmm14
	vpclmulqdq	$0x00,%zmm1,%zmm8,%zmm7
	vpclmulqdq	$0x01,%zmm1,%zmm8,%zmm10
	vpclmulqdq	$0x10,%zmm1,%zmm8,%zmm11
	vmovdqu64	128(%rsp,%rbx,1),%zmm1
	vmovdqa64	1152(%rsp),%zmm8
	vaesenc	%zmm31,%zmm0,%zmm0
	vaesenc	%zmm31,%zmm3,%zmm3
	vaesenc	%zmm31,%zmm4,%zmm4
	vbroadcastf64x2	48(%rdi),%zmm31


	vpclmulqdq	$0x10,%zmm18,%zmm22,%zmm15
	vpclmulqdq	$0x01,%zmm18,%zmm22,%zmm16
	vpclmulqdq	$0x11,%zmm18,%zmm22,%zmm12
	vpclmulqdq	$0x00,%zmm18,%zmm22,%zmm13
	vmovdqu64	192(%rsp,%rbx,1),%zmm18
	vmovdqa64	1216(%rsp),%zmm22
	vaesenc	%zmm30,%zmm0,%zmm0
	vaesenc	%zmm30,%zmm3,%zmm3
	vaesenc	%zmm30,%zmm4,%zmm4
	vbroadcastf64x2	64(%rdi),%zmm30


	vpclmulqdq	$0x10,%zmm1,%zmm8,%zmm20
	vpclmulqdq	$0x01,%zmm1,%zmm8,%zmm21
	vpclmulqdq	$0x11,%zmm1,%zmm8,%zmm17
	vpclmulqdq	$0x00,%zmm1,%zmm8,%zmm19
	vaesenc	%zmm31,%zmm0,%zmm0
	vaesenc	%zmm31,%zmm3,%zmm3
	vaesenc	%zmm31,%zmm4,%zmm4
	vbroadcastf64x2	80(%rdi),%zmm31


	vpternlogq	$0x96,%zmm17,%zmm12,%zmm14
	vpternlogq	$0x96,%zmm19,%zmm13,%zmm7
	vpternlogq	$0x96,%zmm21,%zmm16,%zmm11
	vpternlogq	$0x96,%zmm20,%zmm15,%zmm10
	vaesenc	%zmm30,%zmm0,%zmm0
	vaesenc	%zmm30,%zmm3,%zmm3
	vaesenc	%zmm30,%zmm4,%zmm4
	vbroadcastf64x2	96(%rdi),%zmm30
	vmovdqu8	0(%rcx,%r11,1),%zmm17
	vmovdqu8	64(%rcx,%r11,1),%zmm19
	vmovdqu8	128(%rcx,%r11,1),%zmm20{%k1}{z}
	vaesenc	%zmm31,%zmm0,%zmm0
	vaesenc	%zmm31,%zmm3,%zmm3
	vaesenc	%zmm31,%zmm4,%zmm4
	vbroadcastf64x2	112(%rdi),%zmm31


	vpclmulqdq	$0x10,%zmm18,%zmm22,%zmm15
	vpclmulqdq	$0x01,%zmm18,%zmm22,%zmm16
	vpclmulqdq	$0x11,%zmm18,%zmm22,%zmm12
	vpclmulqdq	$0x00,%zmm18,%zmm22,%zmm13
	vaesenc	%zmm30,%zmm0,%zmm0
	vaesenc	%zmm30,%zmm3,%zmm3
	vaesenc	%zmm30,%zmm4,%zmm4
	vbroadcastf64x2	128(%rdi),%zmm30
	vpternlogq	$0x96,%zmm16,%zmm11,%zmm10
	vpternlogq	$0x96,%zmm12,%zmm14,%zmm24
	vpternlogq	$0x96,%zmm13,%zmm7,%zmm25
	vpternlogq	$0x96,%zmm15,%zmm10,%zmm26
	vaesenc	%zmm31,%zmm0,%zmm0
	vaesenc	%zmm31,%zmm3,%zmm3
	vaesenc	%zmm31,%zmm4,%zmm4
	vbroadcastf64x2	144(%rdi),%zmm31
	vaesenc	%zmm30,%zmm0,%zmm0
	vaesenc	%zmm30,%zmm3,%zmm3
	vaesenc	%zmm30,%zmm4,%zmm4
	vbroadcastf64x2	160(%rdi),%zmm30
	vaesenc	%zmm31,%zmm0,%zmm0
	vaesenc	%zmm31,%zmm3,%zmm3
	vaesenc	%zmm31,%zmm4,%zmm4
	vaesenclast	%zmm30,%zmm0,%zmm0
	vaesenclast	%zmm30,%zmm3,%zmm3
	vaesenclast	%zmm30,%zmm4,%zmm4
	vpxorq	%zmm17,%zmm0,%zmm0
	vpxorq	%zmm19,%zmm3,%zmm3
	vpxorq	%zmm20,%zmm4,%zmm4
	vextracti32x4	$2,%zmm4,%xmm11
	movq	%r9,%r10
	vmovdqu8	%zmm0,0(%r10,%r11,1)
	vmovdqu8	%zmm3,64(%r10,%r11,1)
	vmovdqu8	%zmm4,128(%r10,%r11,1){%k1}
	vmovdqu8	%zmm4,%zmm4{%k1}{z}
	vpshufb	%zmm29,%zmm0,%zmm17
	vpshufb	%zmm29,%zmm3,%zmm19
	vpshufb	%zmm29,%zmm4,%zmm20
	vextracti32x4	$2,%zmm20,%xmm7
	subq	$16 * (11 - 1),%r8


	cmpq	$16,%r8
	jl	.L_small_initial_partial_block_eqfatvCgAClpwur





	subq	$16,%r8
	movq	$0,(%rdx)
	vmovdqu64	176(%rsi),%zmm1
	vpclmulqdq	$0x11,%zmm1,%zmm17,%zmm0
	vpclmulqdq	$0x00,%zmm1,%zmm17,%zmm3
	vpclmulqdq	$0x01,%zmm1,%zmm17,%zmm4
	vpclmulqdq	$0x10,%zmm1,%zmm17,%zmm5
	vmovdqu64	240(%rsi),%zmm1
	vpclmulqdq	$0x11,%zmm1,%zmm19,%zmm8
	vpclmulqdq	$0x00,%zmm1,%zmm19,%zmm22
	vpclmulqdq	$0x01,%zmm1,%zmm19,%zmm30
	vpclmulqdq	$0x10,%zmm1,%zmm19,%zmm31
	vpxorq	%zmm8,%zmm0,%zmm8
	vpxorq	%zmm22,%zmm3,%zmm22
	vpxorq	%zmm30,%zmm4,%zmm30
	vpxorq	%zmm31,%zmm5,%zmm31
	vmovdqu64	304(%rsi),%ymm1
	vinserti64x2	$2,336(%rsi),%zmm1,%zmm1
	vpclmulqdq	$0x01,%zmm1,%zmm20,%zmm4
	vpclmulqdq	$0x10,%zmm1,%zmm20,%zmm5
	vpclmulqdq	$0x11,%zmm1,%zmm20,%zmm0
	vpclmulqdq	$0x00,%zmm1,%zmm20,%zmm3

	vpxorq	%zmm30,%zmm4,%zmm4
	vpternlogq	$0x96,%zmm31,%zmm26,%zmm5
	vpternlogq	$0x96,%zmm8,%zmm24,%zmm0
	vpternlogq	$0x96,%zmm22,%zmm25,%zmm3

	vpxorq	%zmm5,%zmm4,%zmm4
	vpsrldq	$8,%zmm4,%zmm30
	vpslldq	$8,%zmm4,%zmm31
	vpxorq	%zmm30,%zmm0,%zmm0
	vpxorq	%zmm31,%zmm3,%zmm3
	vextracti64x4	$1,%zmm0,%ymm30
	vpxorq	%ymm30,%ymm0,%ymm0
	vextracti32x4	$1,%ymm0,%xmm30
	vpxorq	%xmm30,%xmm0,%xmm0
	vextracti64x4	$1,%zmm3,%ymm31
	vpxorq	%ymm31,%ymm3,%ymm3
	vextracti32x4	$1,%ymm3,%xmm31
	vpxorq	%xmm31,%xmm3,%xmm3
	vmovdqa64	POLY2(%rip),%xmm1


	vpclmulqdq	$0x01,%xmm3,%xmm1,%xmm4
	vpslldq	$8,%xmm4,%xmm4
	vpxorq	%xmm4,%xmm3,%xmm4


	vpclmulqdq	$0x00,%xmm4,%xmm1,%xmm5
	vpsrldq	$4,%xmm5,%xmm5
	vpclmulqdq	$0x10,%xmm4,%xmm1,%xmm14
	vpslldq	$4,%xmm14,%xmm14
	vpternlogq	$0x96,%xmm0,%xmm5,%xmm14

	jmp	.L_small_initial_compute_done_eqfatvCgAClpwur
.L_small_initial_partial_block_eqfatvCgAClpwur:








	movq	%r8,(%rdx)
	vmovdqu64	%xmm11,16(%rsi)
	vmovdqu64	192(%rsi),%zmm1
	vpclmulqdq	$0x11,%zmm1,%zmm17,%zmm0
	vpclmulqdq	$0x00,%zmm1,%zmm17,%zmm3
	vpclmulqdq	$0x01,%zmm1,%zmm17,%zmm4
	vpclmulqdq	$0x10,%zmm1,%zmm17,%zmm5
	vmovdqu64	256(%rsi),%zmm1
	vpclmulqdq	$0x11,%zmm1,%zmm19,%zmm8
	vpclmulqdq	$0x00,%zmm1,%zmm19,%zmm22
	vpclmulqdq	$0x01,%zmm1,%zmm19,%zmm30
	vpclmulqdq	$0x10,%zmm1,%zmm19,%zmm31
	vpxorq	%zmm8,%zmm0,%zmm8
	vpxorq	%zmm22,%zmm3,%zmm22
	vpxorq	%zmm30,%zmm4,%zmm30
	vpxorq	%zmm31,%zmm5,%zmm31
	vmovdqu64	320(%rsi),%ymm1
	vpclmulqdq	$0x01,%ymm1,%ymm20,%ymm4
	vpclmulqdq	$0x10,%ymm1,%ymm20,%ymm5
	vpclmulqdq	$0x11,%ymm1,%ymm20,%ymm0
	vpclmulqdq	$0x00,%ymm1,%ymm20,%ymm3

	vpxorq	%zmm30,%zmm4,%zmm4
	vpternlogq	$0x96,%zmm31,%zmm26,%zmm5
	vpternlogq	$0x96,%zmm8,%zmm24,%zmm0
	vpternlogq	$0x96,%zmm22,%zmm25,%zmm3

	vpxorq	%zmm5,%zmm4,%zmm4
	vpsrldq	$8,%zmm4,%zmm30
	vpslldq	$8,%zmm4,%zmm31
	vpxorq	%zmm30,%zmm0,%zmm0
	vpxorq	%zmm31,%zmm3,%zmm3
	vextracti64x4	$1,%zmm0,%ymm30
	vpxorq	%ymm30,%ymm0,%ymm0
	vextracti32x4	$1,%ymm0,%xmm30
	vpxorq	%xmm30,%xmm0,%xmm0
	vextracti64x4	$1,%zmm3,%ymm31
	vpxorq	%ymm31,%ymm3,%ymm3
	vextracti32x4	$1,%ymm3,%xmm31
	vpxorq	%xmm31,%xmm3,%xmm3
	vmovdqa64	POLY2(%rip),%xmm1


	vpclmulqdq	$0x01,%xmm3,%xmm1,%xmm4
	vpslldq	$8,%xmm4,%xmm4
	vpxorq	%xmm4,%xmm3,%xmm4


	vpclmulqdq	$0x00,%xmm4,%xmm1,%xmm5
	vpsrldq	$4,%xmm5,%xmm5
	vpclmulqdq	$0x10,%xmm4,%xmm1,%xmm14
	vpslldq	$4,%xmm14,%xmm14
	vpternlogq	$0x96,%xmm0,%xmm5,%xmm14

.L_small_initial_compute_done_eqfatvCgAClpwur:

	orq	%r8,%r8
	je	.L_after_reduction_eqfatvCgAClpwur
	vpxorq	%xmm7,%xmm14,%xmm14
.L_after_reduction_eqfatvCgAClpwur:
	jmp	.L_last_blocks_done_DykuFByfDftjliv
.L_last_num_blocks_is_12_DykuFByfDftjliv:
	leaq	byte64_len_to_mask_table(%rip),%r10
	movq	%r8,%rax
	subq	$128,%rax
	kmovq	(%r10,%rax,8),%k1
	cmpl	$244,%r15d
	jae	.L_16_blocks_overflow_vdgasbaBmghhzDl
	vpaddd	%zmm28,%zmm2,%zmm0
	vpaddd	%zmm27,%zmm0,%zmm3
	vpaddd	%zmm27,%zmm3,%zmm4
	jmp	.L_16_blocks_ok_vdgasbaBmghhzDl

.L_16_blocks_overflow_vdgasbaBmghhzDl:
	vpshufb	%zmm29,%zmm2,%zmm2
	vpaddd	ddq_add_1234(%rip),%zmm2,%zmm0
	vmovdqa64	ddq_add_4444(%rip),%zmm5
	vpaddd	%zmm5,%zmm0,%zmm3
	vpaddd	%zmm5,%zmm3,%zmm4
	vpshufb	%zmm29,%zmm0,%zmm0
	vpshufb	%zmm29,%zmm3,%zmm3
	vpshufb	%zmm29,%zmm4,%zmm4
.L_16_blocks_ok_vdgasbaBmghhzDl:




	vbroadcastf64x2	0(%rdi),%zmm30
	vmovdqa64	1024(%rsp),%zmm8
	vmovdqu64	0(%rsp,%rbx,1),%zmm1
	vextracti32x4	$3,%zmm4,%xmm2
	vshufi64x2	$0,%zmm2,%zmm2,%zmm2


	vbroadcastf64x2	16(%rdi),%zmm31
	vmovdqu64	64(%rsp,%rbx,1),%zmm18
	vmovdqa64	1088(%rsp),%zmm22
	vpxorq	%zmm30,%zmm0,%zmm0
	vpxorq	%zmm30,%zmm3,%zmm3
	vpxorq	%zmm30,%zmm4,%zmm4
	vbroadcastf64x2	32(%rdi),%zmm30


	vpclmulqdq	$0x11,%zmm1,%zmm8,%zmm14
	vpclmulqdq	$0x00,%zmm1,%zmm8,%zmm7
	vpclmulqdq	$0x01,%zmm1,%zmm8,%zmm10
	vpclmulqdq	$0x10,%zmm1,%zmm8,%zmm11
	vmovdqu64	128(%rsp,%rbx,1),%zmm1
	vmovdqa64	1152(%rsp),%zmm8
	vaesenc	%zmm31,%zmm0,%zmm0
	vaesenc	%zmm31,%zmm3,%zmm3
	vaesenc	%zmm31,%zmm4,%zmm4
	vbroadcastf64x2	48(%rdi),%zmm31


	vpclmulqdq	$0x10,%zmm18,%zmm22,%zmm15
	vpclmulqdq	$0x01,%zmm18,%zmm22,%zmm16
	vpclmulqdq	$0x11,%zmm18,%zmm22,%zmm12
	vpclmulqdq	$0x00,%zmm18,%zmm22,%zmm13
	vmovdqu64	192(%rsp,%rbx,1),%zmm18
	vmovdqa64	1216(%rsp),%zmm22
	vaesenc	%zmm30,%zmm0,%zmm0
	vaesenc	%zmm30,%zmm3,%zmm3
	vaesenc	%zmm30,%zmm4,%zmm4
	vbroadcastf64x2	64(%rdi),%zmm30


	vpclmulqdq	$0x10,%zmm1,%zmm8,%zmm20
	vpclmulqdq	$0x01,%zmm1,%zmm8,%zmm21
	vpclmulqdq	$0x11,%zmm1,%zmm8,%zmm17
	vpclmulqdq	$0x00,%zmm1,%zmm8,%zmm19
	vaesenc	%zmm31,%zmm0,%zmm0
	vaesenc	%zmm31,%zmm3,%zmm3
	vaesenc	%zmm31,%zmm4,%zmm4
	vbroadcastf64x2	80(%rdi),%zmm31


	vpternlogq	$0x96,%zmm17,%zmm12,%zmm14
	vpternlogq	$0x96,%zmm19,%zmm13,%zmm7
	vpternlogq	$0x96,%zmm21,%zmm16,%zmm11
	vpternlogq	$0x96,%zmm20,%zmm15,%zmm10
	vaesenc	%zmm30,%zmm0,%zmm0
	vaesenc	%zmm30,%zmm3,%zmm3
	vaesenc	%zmm30,%zmm4,%zmm4
	vbroadcastf64x2	96(%rdi),%zmm30
	vmovdqu8	0(%rcx,%r11,1),%zmm17
	vmovdqu8	64(%rcx,%r11,1),%zmm19
	vmovdqu8	128(%rcx,%r11,1),%zmm20{%k1}{z}
	vaesenc	%zmm31,%zmm0,%zmm0
	vaesenc	%zmm31,%zmm3,%zmm3
	vaesenc	%zmm31,%zmm4,%zmm4
	vbroadcastf64x2	112(%rdi),%zmm31


	vpclmulqdq	$0x10,%zmm18,%zmm22,%zmm15
	vpclmulqdq	$0x01,%zmm18,%zmm22,%zmm16
	vpclmulqdq	$0x11,%zmm18,%zmm22,%zmm12
	vpclmulqdq	$0x00,%zmm18,%zmm22,%zmm13
	vaesenc	%zmm30,%zmm0,%zmm0
	vaesenc	%zmm30,%zmm3,%zmm3
	vaesenc	%zmm30,%zmm4,%zmm4
	vbroadcastf64x2	128(%rdi),%zmm30
	vpternlogq	$0x96,%zmm16,%zmm11,%zmm10
	vpternlogq	$0x96,%zmm12,%zmm14,%zmm24
	vpternlogq	$0x96,%zmm13,%zmm7,%zmm25
	vpternlogq	$0x96,%zmm15,%zmm10,%zmm26
	vaesenc	%zmm31,%zmm0,%zmm0
	vaesenc	%zmm31,%zmm3,%zmm3
	vaesenc	%zmm31,%zmm4,%zmm4
	vbroadcastf64x2	144(%rdi),%zmm31
	vaesenc	%zmm30,%zmm0,%zmm0
	vaesenc	%zmm30,%zmm3,%zmm3
	vaesenc	%zmm30,%zmm4,%zmm4
	vbroadcastf64x2	160(%rdi),%zmm30
	vaesenc	%zmm31,%zmm0,%zmm0
	vaesenc	%zmm31,%zmm3,%zmm3
	vaesenc	%zmm31,%zmm4,%zmm4
	vaesenclast	%zmm30,%zmm0,%zmm0
	vaesenclast	%zmm30,%zmm3,%zmm3
	vaesenclast	%zmm30,%zmm4,%zmm4
	vpxorq	%zmm17,%zmm0,%zmm0
	vpxorq	%zmm19,%zmm3,%zmm3
	vpxorq	%zmm20,%zmm4,%zmm4
	vextracti32x4	$3,%zmm4,%xmm11
	movq	%r9,%r10
	vmovdqu8	%zmm0,0(%r10,%r11,1)
	vmovdqu8	%zmm3,64(%r10,%r11,1)
	vmovdqu8	%zmm4,128(%r10,%r11,1){%k1}
	vmovdqu8	%zmm4,%zmm4{%k1}{z}
	vpshufb	%zmm29,%zmm0,%zmm17
	vpshufb	%zmm29,%zmm3,%zmm19
	vpshufb	%zmm29,%zmm4,%zmm20
	vextracti32x4	$3,%zmm20,%xmm7
	subq	$16 * (12 - 1),%r8


	cmpq	$16,%r8
	jl	.L_small_initial_partial_block_DuFClxGcmbjbxwd





	subq	$16,%r8
	movq	$0,(%rdx)
	vmovdqu64	160(%rsi),%zmm1
	vpclmulqdq	$0x11,%zmm1,%zmm17,%zmm0
	vpclmulqdq	$0x00,%zmm1,%zmm17,%zmm3
	vpclmulqdq	$0x01,%zmm1,%zmm17,%zmm4
	vpclmulqdq	$0x10,%zmm1,%zmm17,%zmm5
	vmovdqu64	224(%rsi),%zmm1
	vpclmulqdq	$0x11,%zmm1,%zmm19,%zmm8
	vpclmulqdq	$0x00,%zmm1,%zmm19,%zmm22
	vpclmulqdq	$0x01,%zmm1,%zmm19,%zmm30
	vpclmulqdq	$0x10,%zmm1,%zmm19,%zmm31
	vmovdqu64	288(%rsi),%zmm1
	vpclmulqdq	$0x11,%zmm1,%zmm20,%zmm17
	vpclmulqdq	$0x00,%zmm1,%zmm20,%zmm19
	vpternlogq	$0x96,%zmm0,%zmm17,%zmm8
	vpternlogq	$0x96,%zmm3,%zmm19,%zmm22
	vpclmulqdq	$0x01,%zmm1,%zmm20,%zmm17
	vpclmulqdq	$0x10,%zmm1,%zmm20,%zmm19
	vpternlogq	$0x96,%zmm4,%zmm17,%zmm30
	vpternlogq	$0x96,%zmm5,%zmm19,%zmm31

	vpxorq	%zmm26,%zmm30,%zmm30
	vpxorq	%zmm24,%zmm8,%zmm8
	vpxorq	%zmm25,%zmm22,%zmm22

	vpxorq	%zmm31,%zmm30,%zmm30
	vpsrldq	$8,%zmm30,%zmm4
	vpslldq	$8,%zmm30,%zmm5
	vpxorq	%zmm4,%zmm8,%zmm0
	vpxorq	%zmm5,%zmm22,%zmm3
	vextracti64x4	$1,%zmm0,%ymm30
	vpxorq	%ymm30,%ymm0,%ymm0
	vextracti32x4	$1,%ymm0,%xmm30
	vpxorq	%xmm30,%xmm0,%xmm0
	vextracti64x4	$1,%zmm3,%ymm31
	vpxorq	%ymm31,%ymm3,%ymm3
	vextracti32x4	$1,%ymm3,%xmm31
	vpxorq	%xmm31,%xmm3,%xmm3
	vmovdqa64	POLY2(%rip),%xmm1


	vpclmulqdq	$0x01,%xmm3,%xmm1,%xmm4
	vpslldq	$8,%xmm4,%xmm4
	vpxorq	%xmm4,%xmm3,%xmm4


	vpclmulqdq	$0x00,%xmm4,%xmm1,%xmm5
	vpsrldq	$4,%xmm5,%xmm5
	vpclmulqdq	$0x10,%xmm4,%xmm1,%xmm14
	vpslldq	$4,%xmm14,%xmm14
	vpternlogq	$0x96,%xmm0,%xmm5,%xmm14

	jmp	.L_small_initial_compute_done_DuFClxGcmbjbxwd
.L_small_initial_partial_block_DuFClxGcmbjbxwd:








	movq	%r8,(%rdx)
	vmovdqu64	%xmm11,16(%rsi)
	vmovdqu64	176(%rsi),%zmm1
	vpclmulqdq	$0x11,%zmm1,%zmm17,%zmm0
	vpclmulqdq	$0x00,%zmm1,%zmm17,%zmm3
	vpclmulqdq	$0x01,%zmm1,%zmm17,%zmm4
	vpclmulqdq	$0x10,%zmm1,%zmm17,%zmm5
	vmovdqu64	240(%rsi),%zmm1
	vpclmulqdq	$0x11,%zmm1,%zmm19,%zmm8
	vpclmulqdq	$0x00,%zmm1,%zmm19,%zmm22
	vpclmulqdq	$0x01,%zmm1,%zmm19,%zmm30
	vpclmulqdq	$0x10,%zmm1,%zmm19,%zmm31
	vpxorq	%zmm8,%zmm0,%zmm8
	vpxorq	%zmm22,%zmm3,%zmm22
	vpxorq	%zmm30,%zmm4,%zmm30
	vpxorq	%zmm31,%zmm5,%zmm31
	vmovdqu64	304(%rsi),%ymm1
	vinserti64x2	$2,336(%rsi),%zmm1,%zmm1
	vpclmulqdq	$0x01,%zmm1,%zmm20,%zmm4
	vpclmulqdq	$0x10,%zmm1,%zmm20,%zmm5
	vpclmulqdq	$0x11,%zmm1,%zmm20,%zmm0
	vpclmulqdq	$0x00,%zmm1,%zmm20,%zmm3

	vpxorq	%zmm30,%zmm4,%zmm4
	vpternlogq	$0x96,%zmm31,%zmm26,%zmm5
	vpternlogq	$0x96,%zmm8,%zmm24,%zmm0
	vpternlogq	$0x96,%zmm22,%zmm25,%zmm3

	vpxorq	%zmm5,%zmm4,%zmm4
	vpsrldq	$8,%zmm4,%zmm30
	vpslldq	$8,%zmm4,%zmm31
	vpxorq	%zmm30,%zmm0,%zmm0
	vpxorq	%zmm31,%zmm3,%zmm3
	vextracti64x4	$1,%zmm0,%ymm30
	vpxorq	%ymm30,%ymm0,%ymm0
	vextracti32x4	$1,%ymm0,%xmm30
	vpxorq	%xmm30,%xmm0,%xmm0
	vextracti64x4	$1,%zmm3,%ymm31
	vpxorq	%ymm31,%ymm3,%ymm3
	vextracti32x4	$1,%ymm3,%xmm31
	vpxorq	%xmm31,%xmm3,%xmm3
	vmovdqa64	POLY2(%rip),%xmm1


	vpclmulqdq	$0x01,%xmm3,%xmm1,%xmm4
	vpslldq	$8,%xmm4,%xmm4
	vpxorq	%xmm4,%xmm3,%xmm4


	vpclmulqdq	$0x00,%xmm4,%xmm1,%xmm5
	vpsrldq	$4,%xmm5,%xmm5
	vpclmulqdq	$0x10,%xmm4,%xmm1,%xmm14
	vpslldq	$4,%xmm14,%xmm14
	vpternlogq	$0x96,%xmm0,%xmm5,%xmm14

.L_small_initial_compute_done_DuFClxGcmbjbxwd:

	orq	%r8,%r8
	je	.L_after_reduction_DuFClxGcmbjbxwd
	vpxorq	%xmm7,%xmm14,%xmm14
.L_after_reduction_DuFClxGcmbjbxwd:
	jmp	.L_last_blocks_done_DykuFByfDftjliv
.L_last_num_blocks_is_13_DykuFByfDftjliv:
	leaq	byte64_len_to_mask_table(%rip),%r10
	movq	%r8,%rax
	subq	$192,%rax
	kmovq	(%r10,%rax,8),%k1
	cmpl	$243,%r15d
	jae	.L_16_blocks_overflow_cAhfnukbqFijAjE
	vpaddd	%zmm28,%zmm2,%zmm0
	vpaddd	%zmm27,%zmm0,%zmm3
	vpaddd	%zmm27,%zmm3,%zmm4
	vpaddd	%xmm27,%xmm4,%xmm5
	jmp	.L_16_blocks_ok_cAhfnukbqFijAjE

.L_16_blocks_overflow_cAhfnukbqFijAjE:
	vpshufb	%zmm29,%zmm2,%zmm2
	vpaddd	ddq_add_1234(%rip),%zmm2,%zmm0
	vmovdqa64	ddq_add_4444(%rip),%zmm5
	vpaddd	%zmm5,%zmm0,%zmm3
	vpaddd	%zmm5,%zmm3,%zmm4
	vpaddd	%zmm5,%zmm4,%zmm5
	vpshufb	%zmm29,%zmm0,%zmm0
	vpshufb	%zmm29,%zmm3,%zmm3
	vpshufb	%zmm29,%zmm4,%zmm4
	vpshufb	%xmm29,%xmm5,%xmm5
.L_16_blocks_ok_cAhfnukbqFijAjE:




	vbroadcastf64x2	0(%rdi),%zmm30
	vmovdqa64	1024(%rsp),%zmm8
	vmovdqu64	0(%rsp,%rbx,1),%zmm1
	vextracti32x4	$0,%zmm5,%xmm2
	vshufi64x2	$0,%zmm2,%zmm2,%zmm2


	vbroadcastf64x2	16(%rdi),%zmm31
	vmovdqu64	64(%rsp,%rbx,1),%zmm18
	vmovdqa64	1088(%rsp),%zmm22
	vpxorq	%zmm30,%zmm0,%zmm0
	vpxorq	%zmm30,%zmm3,%zmm3
	vpxorq	%zmm30,%zmm4,%zmm4
	vpxorq	%xmm30,%xmm5,%xmm5
	vbroadcastf64x2	32(%rdi),%zmm30


	vpclmulqdq	$0x11,%zmm1,%zmm8,%zmm14
	vpclmulqdq	$0x00,%zmm1,%zmm8,%zmm7
	vpclmulqdq	$0x01,%zmm1,%zmm8,%zmm10
	vpclmulqdq	$0x10,%zmm1,%zmm8,%zmm11
	vmovdqu64	128(%rsp,%rbx,1),%zmm1
	vmovdqa64	1152(%rsp),%zmm8
	vaesenc	%zmm31,%zmm0,%zmm0
	vaesenc	%zmm31,%zmm3,%zmm3
	vaesenc	%zmm31,%zmm4,%zmm4
	vaesenc	%xmm31,%xmm5,%xmm5
	vbroadcastf64x2	48(%rdi),%zmm31


	vpclmulqdq	$0x10,%zmm18,%zmm22,%zmm15
	vpclmulqdq	$0x01,%zmm18,%zmm22,%zmm16
	vpclmulqdq	$0x11,%zmm18,%zmm22,%zmm12
	vpclmulqdq	$0x00,%zmm18,%zmm22,%zmm13
	vmovdqu64	192(%rsp,%rbx,1),%zmm18
	vmovdqa64	1216(%rsp),%zmm22
	vaesenc	%zmm30,%zmm0,%zmm0
	vaesenc	%zmm30,%zmm3,%zmm3
	vaesenc	%zmm30,%zmm4,%zmm4
	vaesenc	%xmm30,%xmm5,%xmm5
	vbroadcastf64x2	64(%rdi),%zmm30


	vpclmulqdq	$0x10,%zmm1,%zmm8,%zmm20
	vpclmulqdq	$0x01,%zmm1,%zmm8,%zmm21
	vpclmulqdq	$0x11,%zmm1,%zmm8,%zmm17
	vpclmulqdq	$0x00,%zmm1,%zmm8,%zmm19
	vaesenc	%zmm31,%zmm0,%zmm0
	vaesenc	%zmm31,%zmm3,%zmm3
	vaesenc	%zmm31,%zmm4,%zmm4
	vaesenc	%xmm31,%xmm5,%xmm5
	vbroadcastf64x2	80(%rdi),%zmm31


	vpternlogq	$0x96,%zmm17,%zmm12,%zmm14
	vpternlogq	$0x96,%zmm19,%zmm13,%zmm7
	vpternlogq	$0x96,%zmm21,%zmm16,%zmm11
	vpternlogq	$0x96,%zmm20,%zmm15,%zmm10
	vaesenc	%zmm30,%zmm0,%zmm0
	vaesenc	%zmm30,%zmm3,%zmm3
	vaesenc	%zmm30,%zmm4,%zmm4
	vaesenc	%xmm30,%xmm5,%xmm5
	vbroadcastf64x2	96(%rdi),%zmm30
	vmovdqu8	0(%rcx,%r11,1),%zmm17
	vmovdqu8	64(%rcx,%r11,1),%zmm19
	vmovdqu8	128(%rcx,%r11,1),%zmm20
	vmovdqu8	192(%rcx,%r11,1),%xmm21{%k1}{z}
	vaesenc	%zmm31,%zmm0,%zmm0
	vaesenc	%zmm31,%zmm3,%zmm3
	vaesenc	%zmm31,%zmm4,%zmm4
	vaesenc	%xmm31,%xmm5,%xmm5
	vbroadcastf64x2	112(%rdi),%zmm31


	vpclmulqdq	$0x10,%zmm18,%zmm22,%zmm15
	vpclmulqdq	$0x01,%zmm18,%zmm22,%zmm16
	vpclmulqdq	$0x11,%zmm18,%zmm22,%zmm12
	vpclmulqdq	$0x00,%zmm18,%zmm22,%zmm13
	vaesenc	%zmm30,%zmm0,%zmm0
	vaesenc	%zmm30,%zmm3,%zmm3
	vaesenc	%zmm30,%zmm4,%zmm4
	vaesenc	%xmm30,%xmm5,%xmm5
	vbroadcastf64x2	128(%rdi),%zmm30
	vpternlogq	$0x96,%zmm16,%zmm11,%zmm10
	vpternlogq	$0x96,%zmm12,%zmm14,%zmm24
	vpternlogq	$0x96,%zmm13,%zmm7,%zmm25
	vpternlogq	$0x96,%zmm15,%zmm10,%zmm26
	vaesenc	%zmm31,%zmm0,%zmm0
	vaesenc	%zmm31,%zmm3,%zmm3
	vaesenc	%zmm31,%zmm4,%zmm4
	vaesenc	%xmm31,%xmm5,%xmm5
	vbroadcastf64x2	144(%rdi),%zmm31
	vaesenc	%zmm30,%zmm0,%zmm0
	vaesenc	%zmm30,%zmm3,%zmm3
	vaesenc	%zmm30,%zmm4,%zmm4
	vaesenc	%xmm30,%xmm5,%xmm5
	vbroadcastf64x2	160(%rdi),%zmm30
	vaesenc	%zmm31,%zmm0,%zmm0
	vaesenc	%zmm31,%zmm3,%zmm3
	vaesenc	%zmm31,%zmm4,%zmm4
	vaesenc	%xmm31,%xmm5,%xmm5
	vaesenclast	%zmm30,%zmm0,%zmm0
	vaesenclast	%zmm30,%zmm3,%zmm3
	vaesenclast	%zmm30,%zmm4,%zmm4
	vaesenclast	%xmm30,%xmm5,%xmm5
	vpxorq	%zmm17,%zmm0,%zmm0
	vpxorq	%zmm19,%zmm3,%zmm3
	vpxorq	%zmm20,%zmm4,%zmm4
	vpxorq	%xmm21,%xmm5,%xmm5
	vextracti32x4	$0,%zmm5,%xmm11
	movq	%r9,%r10
	vmovdqu8	%zmm0,0(%r10,%r11,1)
	vmovdqu8	%zmm3,64(%r10,%r11,1)
	vmovdqu8	%zmm4,128(%r10,%r11,1)
	vmovdqu8	%xmm5,192(%r10,%r11,1){%k1}
	vmovdqu8	%zmm5,%zmm5{%k1}{z}
	vpshufb	%zmm29,%zmm0,%zmm17
	vpshufb	%zmm29,%zmm3,%zmm19
	vpshufb	%zmm29,%zmm4,%zmm20
	vpshufb	%xmm29,%xmm5,%xmm21
	vextracti32x4	$0,%zmm21,%xmm7
	subq	$16 * (13 - 1),%r8


	cmpq	$16,%r8
	jl	.L_small_initial_partial_block_oGjCcymvllzzbri





	subq	$16,%r8
	movq	$0,(%rdx)
	vmovdqu64	144(%rsi),%zmm1
	vpclmulqdq	$0x11,%zmm1,%zmm17,%zmm0
	vpclmulqdq	$0x00,%zmm1,%zmm17,%zmm3
	vpclmulqdq	$0x01,%zmm1,%zmm17,%zmm4
	vpclmulqdq	$0x10,%zmm1,%zmm17,%zmm5
	vmovdqu64	208(%rsi),%zmm1
	vpclmulqdq	$0x11,%zmm1,%zmm19,%zmm8
	vpclmulqdq	$0x00,%zmm1,%zmm19,%zmm22
	vpclmulqdq	$0x01,%zmm1,%zmm19,%zmm30
	vpclmulqdq	$0x10,%zmm1,%zmm19,%zmm31
	vmovdqu64	272(%rsi),%zmm1
	vpclmulqdq	$0x11,%zmm1,%zmm20,%zmm17
	vpclmulqdq	$0x00,%zmm1,%zmm20,%zmm19
	vpternlogq	$0x96,%zmm0,%zmm17,%zmm8
	vpternlogq	$0x96,%zmm3,%zmm19,%zmm22
	vpclmulqdq	$0x01,%zmm1,%zmm20,%zmm17
	vpclmulqdq	$0x10,%zmm1,%zmm20,%zmm19
	vpternlogq	$0x96,%zmm4,%zmm17,%zmm30
	vpternlogq	$0x96,%zmm5,%zmm19,%zmm31
	vmovdqu64	336(%rsi),%xmm1
	vpclmulqdq	$0x01,%xmm1,%xmm21,%xmm4
	vpclmulqdq	$0x10,%xmm1,%xmm21,%xmm5
	vpclmulqdq	$0x11,%xmm1,%xmm21,%xmm0
	vpclmulqdq	$0x00,%xmm1,%xmm21,%xmm3

	vpxorq	%zmm30,%zmm4,%zmm4
	vpternlogq	$0x96,%zmm31,%zmm26,%zmm5
	vpternlogq	$0x96,%zmm8,%zmm24,%zmm0
	vpternlogq	$0x96,%zmm22,%zmm25,%zmm3

	vpxorq	%zmm5,%zmm4,%zmm4
	vpsrldq	$8,%zmm4,%zmm30
	vpslldq	$8,%zmm4,%zmm31
	vpxorq	%zmm30,%zmm0,%zmm0
	vpxorq	%zmm31,%zmm3,%zmm3
	vextracti64x4	$1,%zmm0,%ymm30
	vpxorq	%ymm30,%ymm0,%ymm0
	vextracti32x4	$1,%ymm0,%xmm30
	vpxorq	%xmm30,%xmm0,%xmm0
	vextracti64x4	$1,%zmm3,%ymm31
	vpxorq	%ymm31,%ymm3,%ymm3
	vextracti32x4	$1,%ymm3,%xmm31
	vpxorq	%xmm31,%xmm3,%xmm3
	vmovdqa64	POLY2(%rip),%xmm1


	vpclmulqdq	$0x01,%xmm3,%xmm1,%xmm4
	vpslldq	$8,%xmm4,%xmm4
	vpxorq	%xmm4,%xmm3,%xmm4


	vpclmulqdq	$0x00,%xmm4,%xmm1,%xmm5
	vpsrldq	$4,%xmm5,%xmm5
	vpclmulqdq	$0x10,%xmm4,%xmm1,%xmm14
	vpslldq	$4,%xmm14,%xmm14
	vpternlogq	$0x96,%xmm0,%xmm5,%xmm14

	jmp	.L_small_initial_compute_done_oGjCcymvllzzbri
.L_small_initial_partial_block_oGjCcymvllzzbri:








	movq	%r8,(%rdx)
	vmovdqu64	%xmm11,16(%rsi)
	vmovdqu64	160(%rsi),%zmm1
	vpclmulqdq	$0x11,%zmm1,%zmm17,%zmm0
	vpclmulqdq	$0x00,%zmm1,%zmm17,%zmm3
	vpclmulqdq	$0x01,%zmm1,%zmm17,%zmm4
	vpclmulqdq	$0x10,%zmm1,%zmm17,%zmm5
	vmovdqu64	224(%rsi),%zmm1
	vpclmulqdq	$0x11,%zmm1,%zmm19,%zmm8
	vpclmulqdq	$0x00,%zmm1,%zmm19,%zmm22
	vpclmulqdq	$0x01,%zmm1,%zmm19,%zmm30
	vpclmulqdq	$0x10,%zmm1,%zmm19,%zmm31
	vmovdqu64	288(%rsi),%zmm1
	vpclmulqdq	$0x11,%zmm1,%zmm20,%zmm17
	vpclmulqdq	$0x00,%zmm1,%zmm20,%zmm19
	vpternlogq	$0x96,%zmm0,%zmm17,%zmm8
	vpternlogq	$0x96,%zmm3,%zmm19,%zmm22
	vpclmulqdq	$0x01,%zmm1,%zmm20,%zmm17
	vpclmulqdq	$0x10,%zmm1,%zmm20,%zmm19
	vpternlogq	$0x96,%zmm4,%zmm17,%zmm30
	vpternlogq	$0x96,%zmm5,%zmm19,%zmm31

	vpxorq	%zmm26,%zmm30,%zmm30
	vpxorq	%zmm24,%zmm8,%zmm8
	vpxorq	%zmm25,%zmm22,%zmm22

	vpxorq	%zmm31,%zmm30,%zmm30
	vpsrldq	$8,%zmm30,%zmm4
	vpslldq	$8,%zmm30,%zmm5
	vpxorq	%zmm4,%zmm8,%zmm0
	vpxorq	%zmm5,%zmm22,%zmm3
	vextracti64x4	$1,%zmm0,%ymm30
	vpxorq	%ymm30,%ymm0,%ymm0
	vextracti32x4	$1,%ymm0,%xmm30
	vpxorq	%xmm30,%xmm0,%xmm0
	vextracti64x4	$1,%zmm3,%ymm31
	vpxorq	%ymm31,%ymm3,%ymm3
	vextracti32x4	$1,%ymm3,%xmm31
	vpxorq	%xmm31,%xmm3,%xmm3
	vmovdqa64	POLY2(%rip),%xmm1


	vpclmulqdq	$0x01,%xmm3,%xmm1,%xmm4
	vpslldq	$8,%xmm4,%xmm4
	vpxorq	%xmm4,%xmm3,%xmm4


	vpclmulqdq	$0x00,%xmm4,%xmm1,%xmm5
	vpsrldq	$4,%xmm5,%xmm5
	vpclmulqdq	$0x10,%xmm4,%xmm1,%xmm14
	vpslldq	$4,%xmm14,%xmm14
	vpternlogq	$0x96,%xmm0,%xmm5,%xmm14

.L_small_initial_compute_done_oGjCcymvllzzbri:

	orq	%r8,%r8
	je	.L_after_reduction_oGjCcymvllzzbri
	vpxorq	%xmm7,%xmm14,%xmm14
.L_after_reduction_oGjCcymvllzzbri:
	jmp	.L_last_blocks_done_DykuFByfDftjliv
.L_last_num_blocks_is_14_DykuFByfDftjliv:
	leaq	byte64_len_to_mask_table(%rip),%r10
	movq	%r8,%rax
	subq	$192,%rax
	kmovq	(%r10,%rax,8),%k1
	cmpl	$242,%r15d
	jae	.L_16_blocks_overflow_gfFatyhEmgvrlmA
	vpaddd	%zmm28,%zmm2,%zmm0
	vpaddd	%zmm27,%zmm0,%zmm3
	vpaddd	%zmm27,%zmm3,%zmm4
	vpaddd	%ymm27,%ymm4,%ymm5
	jmp	.L_16_blocks_ok_gfFatyhEmgvrlmA

.L_16_blocks_overflow_gfFatyhEmgvrlmA:
	vpshufb	%zmm29,%zmm2,%zmm2
	vpaddd	ddq_add_1234(%rip),%zmm2,%zmm0
	vmovdqa64	ddq_add_4444(%rip),%zmm5
	vpaddd	%zmm5,%zmm0,%zmm3
	vpaddd	%zmm5,%zmm3,%zmm4
	vpaddd	%zmm5,%zmm4,%zmm5
	vpshufb	%zmm29,%zmm0,%zmm0
	vpshufb	%zmm29,%zmm3,%zmm3
	vpshufb	%zmm29,%zmm4,%zmm4
	vpshufb	%ymm29,%ymm5,%ymm5
.L_16_blocks_ok_gfFatyhEmgvrlmA:




	vbroadcastf64x2	0(%rdi),%zmm30
	vmovdqa64	1024(%rsp),%zmm8
	vmovdqu64	0(%rsp,%rbx,1),%zmm1
	vextracti32x4	$1,%zmm5,%xmm2
	vshufi64x2	$0,%zmm2,%zmm2,%zmm2


	vbroadcastf64x2	16(%rdi),%zmm31
	vmovdqu64	64(%rsp,%rbx,1),%zmm18
	vmovdqa64	1088(%rsp),%zmm22
	vpxorq	%zmm30,%zmm0,%zmm0
	vpxorq	%zmm30,%zmm3,%zmm3
	vpxorq	%zmm30,%zmm4,%zmm4
	vpxorq	%ymm30,%ymm5,%ymm5
	vbroadcastf64x2	32(%rdi),%zmm30


	vpclmulqdq	$0x11,%zmm1,%zmm8,%zmm14
	vpclmulqdq	$0x00,%zmm1,%zmm8,%zmm7
	vpclmulqdq	$0x01,%zmm1,%zmm8,%zmm10
	vpclmulqdq	$0x10,%zmm1,%zmm8,%zmm11
	vmovdqu64	128(%rsp,%rbx,1),%zmm1
	vmovdqa64	1152(%rsp),%zmm8
	vaesenc	%zmm31,%zmm0,%zmm0
	vaesenc	%zmm31,%zmm3,%zmm3
	vaesenc	%zmm31,%zmm4,%zmm4
	vaesenc	%ymm31,%ymm5,%ymm5
	vbroadcastf64x2	48(%rdi),%zmm31


	vpclmulqdq	$0x10,%zmm18,%zmm22,%zmm15
	vpclmulqdq	$0x01,%zmm18,%zmm22,%zmm16
	vpclmulqdq	$0x11,%zmm18,%zmm22,%zmm12
	vpclmulqdq	$0x00,%zmm18,%zmm22,%zmm13
	vmovdqu64	192(%rsp,%rbx,1),%zmm18
	vmovdqa64	1216(%rsp),%zmm22
	vaesenc	%zmm30,%zmm0,%zmm0
	vaesenc	%zmm30,%zmm3,%zmm3
	vaesenc	%zmm30,%zmm4,%zmm4
	vaesenc	%ymm30,%ymm5,%ymm5
	vbroadcastf64x2	64(%rdi),%zmm30


	vpclmulqdq	$0x10,%zmm1,%zmm8,%zmm20
	vpclmulqdq	$0x01,%zmm1,%zmm8,%zmm21
	vpclmulqdq	$0x11,%zmm1,%zmm8,%zmm17
	vpclmulqdq	$0x00,%zmm1,%zmm8,%zmm19
	vaesenc	%zmm31,%zmm0,%zmm0
	vaesenc	%zmm31,%zmm3,%zmm3
	vaesenc	%zmm31,%zmm4,%zmm4
	vaesenc	%ymm31,%ymm5,%ymm5
	vbroadcastf64x2	80(%rdi),%zmm31


	vpternlogq	$0x96,%zmm17,%zmm12,%zmm14
	vpternlogq	$0x96,%zmm19,%zmm13,%zmm7
	vpternlogq	$0x96,%zmm21,%zmm16,%zmm11
	vpternlogq	$0x96,%zmm20,%zmm15,%zmm10
	vaesenc	%zmm30,%zmm0,%zmm0
	vaesenc	%zmm30,%zmm3,%zmm3
	vaesenc	%zmm30,%zmm4,%zmm4
	vaesenc	%ymm30,%ymm5,%ymm5
	vbroadcastf64x2	96(%rdi),%zmm30
	vmovdqu8	0(%rcx,%r11,1),%zmm17
	vmovdqu8	64(%rcx,%r11,1),%zmm19
	vmovdqu8	128(%rcx,%r11,1),%zmm20
	vmovdqu8	192(%rcx,%r11,1),%ymm21{%k1}{z}
	vaesenc	%zmm31,%zmm0,%zmm0
	vaesenc	%zmm31,%zmm3,%zmm3
	vaesenc	%zmm31,%zmm4,%zmm4
	vaesenc	%ymm31,%ymm5,%ymm5
	vbroadcastf64x2	112(%rdi),%zmm31


	vpclmulqdq	$0x10,%zmm18,%zmm22,%zmm15
	vpclmulqdq	$0x01,%zmm18,%zmm22,%zmm16
	vpclmulqdq	$0x11,%zmm18,%zmm22,%zmm12
	vpclmulqdq	$0x00,%zmm18,%zmm22,%zmm13
	vaesenc	%zmm30,%zmm0,%zmm0
	vaesenc	%zmm30,%zmm3,%zmm3
	vaesenc	%zmm30,%zmm4,%zmm4
	vaesenc	%ymm30,%ymm5,%ymm5
	vbroadcastf64x2	128(%rdi),%zmm30
	vpternlogq	$0x96,%zmm16,%zmm11,%zmm10
	vpternlogq	$0x96,%zmm12,%zmm14,%zmm24
	vpternlogq	$0x96,%zmm13,%zmm7,%zmm25
	vpternlogq	$0x96,%zmm15,%zmm10,%zmm26
	vaesenc	%zmm31,%zmm0,%zmm0
	vaesenc	%zmm31,%zmm3,%zmm3
	vaesenc	%zmm31,%zmm4,%zmm4
	vaesenc	%ymm31,%ymm5,%ymm5
	vbroadcastf64x2	144(%rdi),%zmm31
	vaesenc	%zmm30,%zmm0,%zmm0
	vaesenc	%zmm30,%zmm3,%zmm3
	vaesenc	%zmm30,%zmm4,%zmm4
	vaesenc	%ymm30,%ymm5,%ymm5
	vbroadcastf64x2	160(%rdi),%zmm30
	vaesenc	%zmm31,%zmm0,%zmm0
	vaesenc	%zmm31,%zmm3,%zmm3
	vaesenc	%zmm31,%zmm4,%zmm4
	vaesenc	%ymm31,%ymm5,%ymm5
	vaesenclast	%zmm30,%zmm0,%zmm0
	vaesenclast	%zmm30,%zmm3,%zmm3
	vaesenclast	%zmm30,%zmm4,%zmm4
	vaesenclast	%ymm30,%ymm5,%ymm5
	vpxorq	%zmm17,%zmm0,%zmm0
	vpxorq	%zmm19,%zmm3,%zmm3
	vpxorq	%zmm20,%zmm4,%zmm4
	vpxorq	%ymm21,%ymm5,%ymm5
	vextracti32x4	$1,%zmm5,%xmm11
	movq	%r9,%r10
	vmovdqu8	%zmm0,0(%r10,%r11,1)
	vmovdqu8	%zmm3,64(%r10,%r11,1)
	vmovdqu8	%zmm4,128(%r10,%r11,1)
	vmovdqu8	%ymm5,192(%r10,%r11,1){%k1}
	vmovdqu8	%zmm5,%zmm5{%k1}{z}
	vpshufb	%zmm29,%zmm0,%zmm17
	vpshufb	%zmm29,%zmm3,%zmm19
	vpshufb	%zmm29,%zmm4,%zmm20
	vpshufb	%ymm29,%ymm5,%ymm21
	vextracti32x4	$1,%zmm21,%xmm7
	subq	$16 * (14 - 1),%r8


	cmpq	$16,%r8
	jl	.L_small_initial_partial_block_AaGEsgubokvCcic





	subq	$16,%r8
	movq	$0,(%rdx)
	vmovdqu64	128(%rsi),%zmm1
	vpclmulqdq	$0x11,%zmm1,%zmm17,%zmm0
	vpclmulqdq	$0x00,%zmm1,%zmm17,%zmm3
	vpclmulqdq	$0x01,%zmm1,%zmm17,%zmm4
	vpclmulqdq	$0x10,%zmm1,%zmm17,%zmm5
	vmovdqu64	192(%rsi),%zmm1
	vpclmulqdq	$0x11,%zmm1,%zmm19,%zmm8
	vpclmulqdq	$0x00,%zmm1,%zmm19,%zmm22
	vpclmulqdq	$0x01,%zmm1,%zmm19,%zmm30
	vpclmulqdq	$0x10,%zmm1,%zmm19,%zmm31
	vmovdqu64	256(%rsi),%zmm1
	vpclmulqdq	$0x11,%zmm1,%zmm20,%zmm17
	vpclmulqdq	$0x00,%zmm1,%zmm20,%zmm19
	vpternlogq	$0x96,%zmm0,%zmm17,%zmm8
	vpternlogq	$0x96,%zmm3,%zmm19,%zmm22
	vpclmulqdq	$0x01,%zmm1,%zmm20,%zmm17
	vpclmulqdq	$0x10,%zmm1,%zmm20,%zmm19
	vpternlogq	$0x96,%zmm4,%zmm17,%zmm30
	vpternlogq	$0x96,%zmm5,%zmm19,%zmm31
	vmovdqu64	320(%rsi),%ymm1
	vpclmulqdq	$0x01,%ymm1,%ymm21,%ymm4
	vpclmulqdq	$0x10,%ymm1,%ymm21,%ymm5
	vpclmulqdq	$0x11,%ymm1,%ymm21,%ymm0
	vpclmulqdq	$0x00,%ymm1,%ymm21,%ymm3

	vpxorq	%zmm30,%zmm4,%zmm4
	vpternlogq	$0x96,%zmm31,%zmm26,%zmm5
	vpternlogq	$0x96,%zmm8,%zmm24,%zmm0
	vpternlogq	$0x96,%zmm22,%zmm25,%zmm3

	vpxorq	%zmm5,%zmm4,%zmm4
	vpsrldq	$8,%zmm4,%zmm30
	vpslldq	$8,%zmm4,%zmm31
	vpxorq	%zmm30,%zmm0,%zmm0
	vpxorq	%zmm31,%zmm3,%zmm3
	vextracti64x4	$1,%zmm0,%ymm30
	vpxorq	%ymm30,%ymm0,%ymm0
	vextracti32x4	$1,%ymm0,%xmm30
	vpxorq	%xmm30,%xmm0,%xmm0
	vextracti64x4	$1,%zmm3,%ymm31
	vpxorq	%ymm31,%ymm3,%ymm3
	vextracti32x4	$1,%ymm3,%xmm31
	vpxorq	%xmm31,%xmm3,%xmm3
	vmovdqa64	POLY2(%rip),%xmm1


	vpclmulqdq	$0x01,%xmm3,%xmm1,%xmm4
	vpslldq	$8,%xmm4,%xmm4
	vpxorq	%xmm4,%xmm3,%xmm4


	vpclmulqdq	$0x00,%xmm4,%xmm1,%xmm5
	vpsrldq	$4,%xmm5,%xmm5
	vpclmulqdq	$0x10,%xmm4,%xmm1,%xmm14
	vpslldq	$4,%xmm14,%xmm14
	vpternlogq	$0x96,%xmm0,%xmm5,%xmm14

	jmp	.L_small_initial_compute_done_AaGEsgubokvCcic
.L_small_initial_partial_block_AaGEsgubokvCcic:








	movq	%r8,(%rdx)
	vmovdqu64	%xmm11,16(%rsi)
	vmovdqu64	144(%rsi),%zmm1
	vpclmulqdq	$0x11,%zmm1,%zmm17,%zmm0
	vpclmulqdq	$0x00,%zmm1,%zmm17,%zmm3
	vpclmulqdq	$0x01,%zmm1,%zmm17,%zmm4
	vpclmulqdq	$0x10,%zmm1,%zmm17,%zmm5
	vmovdqu64	208(%rsi),%zmm1
	vpclmulqdq	$0x11,%zmm1,%zmm19,%zmm8
	vpclmulqdq	$0x00,%zmm1,%zmm19,%zmm22
	vpclmulqdq	$0x01,%zmm1,%zmm19,%zmm30
	vpclmulqdq	$0x10,%zmm1,%zmm19,%zmm31
	vmovdqu64	272(%rsi),%zmm1
	vpclmulqdq	$0x11,%zmm1,%zmm20,%zmm17
	vpclmulqdq	$0x00,%zmm1,%zmm20,%zmm19
	vpternlogq	$0x96,%zmm0,%zmm17,%zmm8
	vpternlogq	$0x96,%zmm3,%zmm19,%zmm22
	vpclmulqdq	$0x01,%zmm1,%zmm20,%zmm17
	vpclmulqdq	$0x10,%zmm1,%zmm20,%zmm19
	vpternlogq	$0x96,%zmm4,%zmm17,%zmm30
	vpternlogq	$0x96,%zmm5,%zmm19,%zmm31
	vmovdqu64	336(%rsi),%xmm1
	vpclmulqdq	$0x01,%xmm1,%xmm21,%xmm4
	vpclmulqdq	$0x10,%xmm1,%xmm21,%xmm5
	vpclmulqdq	$0x11,%xmm1,%xmm21,%xmm0
	vpclmulqdq	$0x00,%xmm1,%xmm21,%xmm3

	vpxorq	%zmm30,%zmm4,%zmm4
	vpternlogq	$0x96,%zmm31,%zmm26,%zmm5
	vpternlogq	$0x96,%zmm8,%zmm24,%zmm0
	vpternlogq	$0x96,%zmm22,%zmm25,%zmm3

	vpxorq	%zmm5,%zmm4,%zmm4
	vpsrldq	$8,%zmm4,%zmm30
	vpslldq	$8,%zmm4,%zmm31
	vpxorq	%zmm30,%zmm0,%zmm0
	vpxorq	%zmm31,%zmm3,%zmm3
	vextracti64x4	$1,%zmm0,%ymm30
	vpxorq	%ymm30,%ymm0,%ymm0
	vextracti32x4	$1,%ymm0,%xmm30
	vpxorq	%xmm30,%xmm0,%xmm0
	vextracti64x4	$1,%zmm3,%ymm31
	vpxorq	%ymm31,%ymm3,%ymm3
	vextracti32x4	$1,%ymm3,%xmm31
	vpxorq	%xmm31,%xmm3,%xmm3
	vmovdqa64	POLY2(%rip),%xmm1


	vpclmulqdq	$0x01,%xmm3,%xmm1,%xmm4
	vpslldq	$8,%xmm4,%xmm4
	vpxorq	%xmm4,%xmm3,%xmm4


	vpclmulqdq	$0x00,%xmm4,%xmm1,%xmm5
	vpsrldq	$4,%xmm5,%xmm5
	vpclmulqdq	$0x10,%xmm4,%xmm1,%xmm14
	vpslldq	$4,%xmm14,%xmm14
	vpternlogq	$0x96,%xmm0,%xmm5,%xmm14

.L_small_initial_compute_done_AaGEsgubokvCcic:

	orq	%r8,%r8
	je	.L_after_reduction_AaGEsgubokvCcic
	vpxorq	%xmm7,%xmm14,%xmm14
.L_after_reduction_AaGEsgubokvCcic:
	jmp	.L_last_blocks_done_DykuFByfDftjliv
.L_last_num_blocks_is_15_DykuFByfDftjliv:
	leaq	byte64_len_to_mask_table(%rip),%r10
	movq	%r8,%rax
	subq	$192,%rax
	kmovq	(%r10,%rax,8),%k1
	cmpl	$241,%r15d
	jae	.L_16_blocks_overflow_yovuxebCEsixrlD
	vpaddd	%zmm28,%zmm2,%zmm0
	vpaddd	%zmm27,%zmm0,%zmm3
	vpaddd	%zmm27,%zmm3,%zmm4
	vpaddd	%zmm27,%zmm4,%zmm5
	jmp	.L_16_blocks_ok_yovuxebCEsixrlD

.L_16_blocks_overflow_yovuxebCEsixrlD:
	vpshufb	%zmm29,%zmm2,%zmm2
	vpaddd	ddq_add_1234(%rip),%zmm2,%zmm0
	vmovdqa64	ddq_add_4444(%rip),%zmm5
	vpaddd	%zmm5,%zmm0,%zmm3
	vpaddd	%zmm5,%zmm3,%zmm4
	vpaddd	%zmm5,%zmm4,%zmm5
	vpshufb	%zmm29,%zmm0,%zmm0
	vpshufb	%zmm29,%zmm3,%zmm3
	vpshufb	%zmm29,%zmm4,%zmm4
	vpshufb	%zmm29,%zmm5,%zmm5
.L_16_blocks_ok_yovuxebCEsixrlD:




	vbroadcastf64x2	0(%rdi),%zmm30
	vmovdqa64	1024(%rsp),%zmm8
	vmovdqu64	0(%rsp,%rbx,1),%zmm1
	vextracti32x4	$2,%zmm5,%xmm2
	vshufi64x2	$0,%zmm2,%zmm2,%zmm2


	vbroadcastf64x2	16(%rdi),%zmm31
	vmovdqu64	64(%rsp,%rbx,1),%zmm18
	vmovdqa64	1088(%rsp),%zmm22
	vpxorq	%zmm30,%zmm0,%zmm0
	vpxorq	%zmm30,%zmm3,%zmm3
	vpxorq	%zmm30,%zmm4,%zmm4
	vpxorq	%zmm30,%zmm5,%zmm5
	vbroadcastf64x2	32(%rdi),%zmm30


	vpclmulqdq	$0x11,%zmm1,%zmm8,%zmm14
	vpclmulqdq	$0x00,%zmm1,%zmm8,%zmm7
	vpclmulqdq	$0x01,%zmm1,%zmm8,%zmm10
	vpclmulqdq	$0x10,%zmm1,%zmm8,%zmm11
	vmovdqu64	128(%rsp,%rbx,1),%zmm1
	vmovdqa64	1152(%rsp),%zmm8
	vaesenc	%zmm31,%zmm0,%zmm0
	vaesenc	%zmm31,%zmm3,%zmm3
	vaesenc	%zmm31,%zmm4,%zmm4
	vaesenc	%zmm31,%zmm5,%zmm5
	vbroadcastf64x2	48(%rdi),%zmm31


	vpclmulqdq	$0x10,%zmm18,%zmm22,%zmm15
	vpclmulqdq	$0x01,%zmm18,%zmm22,%zmm16
	vpclmulqdq	$0x11,%zmm18,%zmm22,%zmm12
	vpclmulqdq	$0x00,%zmm18,%zmm22,%zmm13
	vmovdqu64	192(%rsp,%rbx,1),%zmm18
	vmovdqa64	1216(%rsp),%zmm22
	vaesenc	%zmm30,%zmm0,%zmm0
	vaesenc	%zmm30,%zmm3,%zmm3
	vaesenc	%zmm30,%zmm4,%zmm4
	vaesenc	%zmm30,%zmm5,%zmm5
	vbroadcastf64x2	64(%rdi),%zmm30


	vpclmulqdq	$0x10,%zmm1,%zmm8,%zmm20
	vpclmulqdq	$0x01,%zmm1,%zmm8,%zmm21
	vpclmulqdq	$0x11,%zmm1,%zmm8,%zmm17
	vpclmulqdq	$0x00,%zmm1,%zmm8,%zmm19
	vaesenc	%zmm31,%zmm0,%zmm0
	vaesenc	%zmm31,%zmm3,%zmm3
	vaesenc	%zmm31,%zmm4,%zmm4
	vaesenc	%zmm31,%zmm5,%zmm5
	vbroadcastf64x2	80(%rdi),%zmm31


	vpternlogq	$0x96,%zmm17,%zmm12,%zmm14
	vpternlogq	$0x96,%zmm19,%zmm13,%zmm7
	vpternlogq	$0x96,%zmm21,%zmm16,%zmm11
	vpternlogq	$0x96,%zmm20,%zmm15,%zmm10
	vaesenc	%zmm30,%zmm0,%zmm0
	vaesenc	%zmm30,%zmm3,%zmm3
	vaesenc	%zmm30,%zmm4,%zmm4
	vaesenc	%zmm30,%zmm5,%zmm5
	vbroadcastf64x2	96(%rdi),%zmm30
	vmovdqu8	0(%rcx,%r11,1),%zmm17
	vmovdqu8	64(%rcx,%r11,1),%zmm19
	vmovdqu8	128(%rcx,%r11,1),%zmm20
	vmovdqu8	192(%rcx,%r11,1),%zmm21{%k1}{z}
	vaesenc	%zmm31,%zmm0,%zmm0
	vaesenc	%zmm31,%zmm3,%zmm3
	vaesenc	%zmm31,%zmm4,%zmm4
	vaesenc	%zmm31,%zmm5,%zmm5
	vbroadcastf64x2	112(%rdi),%zmm31


	vpclmulqdq	$0x10,%zmm18,%zmm22,%zmm15
	vpclmulqdq	$0x01,%zmm18,%zmm22,%zmm16
	vpclmulqdq	$0x11,%zmm18,%zmm22,%zmm12
	vpclmulqdq	$0x00,%zmm18,%zmm22,%zmm13
	vaesenc	%zmm30,%zmm0,%zmm0
	vaesenc	%zmm30,%zmm3,%zmm3
	vaesenc	%zmm30,%zmm4,%zmm4
	vaesenc	%zmm30,%zmm5,%zmm5
	vbroadcastf64x2	128(%rdi),%zmm30
	vpternlogq	$0x96,%zmm16,%zmm11,%zmm10
	vpternlogq	$0x96,%zmm12,%zmm14,%zmm24
	vpternlogq	$0x96,%zmm13,%zmm7,%zmm25
	vpternlogq	$0x96,%zmm15,%zmm10,%zmm26
	vaesenc	%zmm31,%zmm0,%zmm0
	vaesenc	%zmm31,%zmm3,%zmm3
	vaesenc	%zmm31,%zmm4,%zmm4
	vaesenc	%zmm31,%zmm5,%zmm5
	vbroadcastf64x2	144(%rdi),%zmm31
	vaesenc	%zmm30,%zmm0,%zmm0
	vaesenc	%zmm30,%zmm3,%zmm3
	vaesenc	%zmm30,%zmm4,%zmm4
	vaesenc	%zmm30,%zmm5,%zmm5
	vbroadcastf64x2	160(%rdi),%zmm30
	vaesenc	%zmm31,%zmm0,%zmm0
	vaesenc	%zmm31,%zmm3,%zmm3
	vaesenc	%zmm31,%zmm4,%zmm4
	vaesenc	%zmm31,%zmm5,%zmm5
	vaesenclast	%zmm30,%zmm0,%zmm0
	vaesenclast	%zmm30,%zmm3,%zmm3
	vaesenclast	%zmm30,%zmm4,%zmm4
	vaesenclast	%zmm30,%zmm5,%zmm5
	vpxorq	%zmm17,%zmm0,%zmm0
	vpxorq	%zmm19,%zmm3,%zmm3
	vpxorq	%zmm20,%zmm4,%zmm4
	vpxorq	%zmm21,%zmm5,%zmm5
	vextracti32x4	$2,%zmm5,%xmm11
	movq	%r9,%r10
	vmovdqu8	%zmm0,0(%r10,%r11,1)
	vmovdqu8	%zmm3,64(%r10,%r11,1)
	vmovdqu8	%zmm4,128(%r10,%r11,1)
	vmovdqu8	%zmm5,192(%r10,%r11,1){%k1}
	vmovdqu8	%zmm5,%zmm5{%k1}{z}
	vpshufb	%zmm29,%zmm0,%zmm17
	vpshufb	%zmm29,%zmm3,%zmm19
	vpshufb	%zmm29,%zmm4,%zmm20
	vpshufb	%zmm29,%zmm5,%zmm21
	vextracti32x4	$2,%zmm21,%xmm7
	subq	$16 * (15 - 1),%r8


	cmpq	$16,%r8
	jl	.L_small_initial_partial_block_vzzbvAphmCdzsnm





	subq	$16,%r8
	movq	$0,(%rdx)
	vmovdqu64	112(%rsi),%zmm1
	vpclmulqdq	$0x11,%zmm1,%zmm17,%zmm0
	vpclmulqdq	$0x00,%zmm1,%zmm17,%zmm3
	vpclmulqdq	$0x01,%zmm1,%zmm17,%zmm4
	vpclmulqdq	$0x10,%zmm1,%zmm17,%zmm5
	vmovdqu64	176(%rsi),%zmm1
	vpclmulqdq	$0x11,%zmm1,%zmm19,%zmm8
	vpclmulqdq	$0x00,%zmm1,%zmm19,%zmm22
	vpclmulqdq	$0x01,%zmm1,%zmm19,%zmm30
	vpclmulqdq	$0x10,%zmm1,%zmm19,%zmm31
	vmovdqu64	240(%rsi),%zmm1
	vpclmulqdq	$0x11,%zmm1,%zmm20,%zmm17
	vpclmulqdq	$0x00,%zmm1,%zmm20,%zmm19
	vpternlogq	$0x96,%zmm0,%zmm17,%zmm8
	vpternlogq	$0x96,%zmm3,%zmm19,%zmm22
	vpclmulqdq	$0x01,%zmm1,%zmm20,%zmm17
	vpclmulqdq	$0x10,%zmm1,%zmm20,%zmm19
	vpternlogq	$0x96,%zmm4,%zmm17,%zmm30
	vpternlogq	$0x96,%zmm5,%zmm19,%zmm31
	vmovdqu64	304(%rsi),%ymm1
	vinserti64x2	$2,336(%rsi),%zmm1,%zmm1
	vpclmulqdq	$0x01,%zmm1,%zmm21,%zmm4
	vpclmulqdq	$0x10,%zmm1,%zmm21,%zmm5
	vpclmulqdq	$0x11,%zmm1,%zmm21,%zmm0
	vpclmulqdq	$0x00,%zmm1,%zmm21,%zmm3

	vpxorq	%zmm30,%zmm4,%zmm4
	vpternlogq	$0x96,%zmm31,%zmm26,%zmm5
	vpternlogq	$0x96,%zmm8,%zmm24,%zmm0
	vpternlogq	$0x96,%zmm22,%zmm25,%zmm3

	vpxorq	%zmm5,%zmm4,%zmm4
	vpsrldq	$8,%zmm4,%zmm30
	vpslldq	$8,%zmm4,%zmm31
	vpxorq	%zmm30,%zmm0,%zmm0
	vpxorq	%zmm31,%zmm3,%zmm3
	vextracti64x4	$1,%zmm0,%ymm30
	vpxorq	%ymm30,%ymm0,%ymm0
	vextracti32x4	$1,%ymm0,%xmm30
	vpxorq	%xmm30,%xmm0,%xmm0
	vextracti64x4	$1,%zmm3,%ymm31
	vpxorq	%ymm31,%ymm3,%ymm3
	vextracti32x4	$1,%ymm3,%xmm31
	vpxorq	%xmm31,%xmm3,%xmm3
	vmovdqa64	POLY2(%rip),%xmm1


	vpclmulqdq	$0x01,%xmm3,%xmm1,%xmm4
	vpslldq	$8,%xmm4,%xmm4
	vpxorq	%xmm4,%xmm3,%xmm4


	vpclmulqdq	$0x00,%xmm4,%xmm1,%xmm5
	vpsrldq	$4,%xmm5,%xmm5
	vpclmulqdq	$0x10,%xmm4,%xmm1,%xmm14
	vpslldq	$4,%xmm14,%xmm14
	vpternlogq	$0x96,%xmm0,%xmm5,%xmm14

	jmp	.L_small_initial_compute_done_vzzbvAphmCdzsnm
.L_small_initial_partial_block_vzzbvAphmCdzsnm:








	movq	%r8,(%rdx)
	vmovdqu64	%xmm11,16(%rsi)
	vmovdqu64	128(%rsi),%zmm1
	vpclmulqdq	$0x11,%zmm1,%zmm17,%zmm0
	vpclmulqdq	$0x00,%zmm1,%zmm17,%zmm3
	vpclmulqdq	$0x01,%zmm1,%zmm17,%zmm4
	vpclmulqdq	$0x10,%zmm1,%zmm17,%zmm5
	vmovdqu64	192(%rsi),%zmm1
	vpclmulqdq	$0x11,%zmm1,%zmm19,%zmm8
	vpclmulqdq	$0x00,%zmm1,%zmm19,%zmm22
	vpclmulqdq	$0x01,%zmm1,%zmm19,%zmm30
	vpclmulqdq	$0x10,%zmm1,%zmm19,%zmm31
	vmovdqu64	256(%rsi),%zmm1
	vpclmulqdq	$0x11,%zmm1,%zmm20,%zmm17
	vpclmulqdq	$0x00,%zmm1,%zmm20,%zmm19
	vpternlogq	$0x96,%zmm0,%zmm17,%zmm8
	vpternlogq	$0x96,%zmm3,%zmm19,%zmm22
	vpclmulqdq	$0x01,%zmm1,%zmm20,%zmm17
	vpclmulqdq	$0x10,%zmm1,%zmm20,%zmm19
	vpternlogq	$0x96,%zmm4,%zmm17,%zmm30
	vpternlogq	$0x96,%zmm5,%zmm19,%zmm31
	vmovdqu64	320(%rsi),%ymm1
	vpclmulqdq	$0x01,%ymm1,%ymm21,%ymm4
	vpclmulqdq	$0x10,%ymm1,%ymm21,%ymm5
	vpclmulqdq	$0x11,%ymm1,%ymm21,%ymm0
	vpclmulqdq	$0x00,%ymm1,%ymm21,%ymm3

	vpxorq	%zmm30,%zmm4,%zmm4
	vpternlogq	$0x96,%zmm31,%zmm26,%zmm5
	vpternlogq	$0x96,%zmm8,%zmm24,%zmm0
	vpternlogq	$0x96,%zmm22,%zmm25,%zmm3

	vpxorq	%zmm5,%zmm4,%zmm4
	vpsrldq	$8,%zmm4,%zmm30
	vpslldq	$8,%zmm4,%zmm31
	vpxorq	%zmm30,%zmm0,%zmm0
	vpxorq	%zmm31,%zmm3,%zmm3
	vextracti64x4	$1,%zmm0,%ymm30
	vpxorq	%ymm30,%ymm0,%ymm0
	vextracti32x4	$1,%ymm0,%xmm30
	vpxorq	%xmm30,%xmm0,%xmm0
	vextracti64x4	$1,%zmm3,%ymm31
	vpxorq	%ymm31,%ymm3,%ymm3
	vextracti32x4	$1,%ymm3,%xmm31
	vpxorq	%xmm31,%xmm3,%xmm3
	vmovdqa64	POLY2(%rip),%xmm1


	vpclmulqdq	$0x01,%xmm3,%xmm1,%xmm4
	vpslldq	$8,%xmm4,%xmm4
	vpxorq	%xmm4,%xmm3,%xmm4


	vpclmulqdq	$0x00,%xmm4,%xmm1,%xmm5
	vpsrldq	$4,%xmm5,%xmm5
	vpclmulqdq	$0x10,%xmm4,%xmm1,%xmm14
	vpslldq	$4,%xmm14,%xmm14
	vpternlogq	$0x96,%xmm0,%xmm5,%xmm14

.L_small_initial_compute_done_vzzbvAphmCdzsnm:

	orq	%r8,%r8
	je	.L_after_reduction_vzzbvAphmCdzsnm
	vpxorq	%xmm7,%xmm14,%xmm14
.L_after_reduction_vzzbvAphmCdzsnm:
	jmp	.L_last_blocks_done_DykuFByfDftjliv
.L_last_num_blocks_is_16_DykuFByfDftjliv:
	leaq	byte64_len_to_mask_table(%rip),%r10
	movq	%r8,%rax
	subq	$192,%rax
	kmovq	(%r10,%rax,8),%k1
	cmpl	$240,%r15d
	jae	.L_16_blocks_overflow_lcDzsbqlrgmwcaB
	vpaddd	%zmm28,%zmm2,%zmm0
	vpaddd	%zmm27,%zmm0,%zmm3
	vpaddd	%zmm27,%zmm3,%zmm4
	vpaddd	%zmm27,%zmm4,%zmm5
	jmp	.L_16_blocks_ok_lcDzsbqlrgmwcaB

.L_16_blocks_overflow_lcDzsbqlrgmwcaB:
	vpshufb	%zmm29,%zmm2,%zmm2
	vpaddd	ddq_add_1234(%rip),%zmm2,%zmm0
	vmovdqa64	ddq_add_4444(%rip),%zmm5
	vpaddd	%zmm5,%zmm0,%zmm3
	vpaddd	%zmm5,%zmm3,%zmm4
	vpaddd	%zmm5,%zmm4,%zmm5
	vpshufb	%zmm29,%zmm0,%zmm0
	vpshufb	%zmm29,%zmm3,%zmm3
	vpshufb	%zmm29,%zmm4,%zmm4
	vpshufb	%zmm29,%zmm5,%zmm5
.L_16_blocks_ok_lcDzsbqlrgmwcaB:




	vbroadcastf64x2	0(%rdi),%zmm30
	vmovdqa64	1024(%rsp),%zmm8
	vmovdqu64	0(%rsp,%rbx,1),%zmm1
	vextracti32x4	$3,%zmm5,%xmm2
	vshufi64x2	$0,%zmm2,%zmm2,%zmm2


	vbroadcastf64x2	16(%rdi),%zmm31
	vmovdqu64	64(%rsp,%rbx,1),%zmm18
	vmovdqa64	1088(%rsp),%zmm22
	vpxorq	%zmm30,%zmm0,%zmm0
	vpxorq	%zmm30,%zmm3,%zmm3
	vpxorq	%zmm30,%zmm4,%zmm4
	vpxorq	%zmm30,%zmm5,%zmm5
	vbroadcastf64x2	32(%rdi),%zmm30


	vpclmulqdq	$0x11,%zmm1,%zmm8,%zmm14
	vpclmulqdq	$0x00,%zmm1,%zmm8,%zmm7
	vpclmulqdq	$0x01,%zmm1,%zmm8,%zmm10
	vpclmulqdq	$0x10,%zmm1,%zmm8,%zmm11
	vmovdqu64	128(%rsp,%rbx,1),%zmm1
	vmovdqa64	1152(%rsp),%zmm8
	vaesenc	%zmm31,%zmm0,%zmm0
	vaesenc	%zmm31,%zmm3,%zmm3
	vaesenc	%zmm31,%zmm4,%zmm4
	vaesenc	%zmm31,%zmm5,%zmm5
	vbroadcastf64x2	48(%rdi),%zmm31


	vpclmulqdq	$0x10,%zmm18,%zmm22,%zmm15
	vpclmulqdq	$0x01,%zmm18,%zmm22,%zmm16
	vpclmulqdq	$0x11,%zmm18,%zmm22,%zmm12
	vpclmulqdq	$0x00,%zmm18,%zmm22,%zmm13
	vmovdqu64	192(%rsp,%rbx,1),%zmm18
	vmovdqa64	1216(%rsp),%zmm22
	vaesenc	%zmm30,%zmm0,%zmm0
	vaesenc	%zmm30,%zmm3,%zmm3
	vaesenc	%zmm30,%zmm4,%zmm4
	vaesenc	%zmm30,%zmm5,%zmm5
	vbroadcastf64x2	64(%rdi),%zmm30


	vpclmulqdq	$0x10,%zmm1,%zmm8,%zmm20
	vpclmulqdq	$0x01,%zmm1,%zmm8,%zmm21
	vpclmulqdq	$0x11,%zmm1,%zmm8,%zmm17
	vpclmulqdq	$0x00,%zmm1,%zmm8,%zmm19
	vaesenc	%zmm31,%zmm0,%zmm0
	vaesenc	%zmm31,%zmm3,%zmm3
	vaesenc	%zmm31,%zmm4,%zmm4
	vaesenc	%zmm31,%zmm5,%zmm5
	vbroadcastf64x2	80(%rdi),%zmm31


	vpternlogq	$0x96,%zmm17,%zmm12,%zmm14
	vpternlogq	$0x96,%zmm19,%zmm13,%zmm7
	vpternlogq	$0x96,%zmm21,%zmm16,%zmm11
	vpternlogq	$0x96,%zmm20,%zmm15,%zmm10
	vaesenc	%zmm30,%zmm0,%zmm0
	vaesenc	%zmm30,%zmm3,%zmm3
	vaesenc	%zmm30,%zmm4,%zmm4
	vaesenc	%zmm30,%zmm5,%zmm5
	vbroadcastf64x2	96(%rdi),%zmm30
	vmovdqu8	0(%rcx,%r11,1),%zmm17
	vmovdqu8	64(%rcx,%r11,1),%zmm19
	vmovdqu8	128(%rcx,%r11,1),%zmm20
	vmovdqu8	192(%rcx,%r11,1),%zmm21{%k1}{z}
	vaesenc	%zmm31,%zmm0,%zmm0
	vaesenc	%zmm31,%zmm3,%zmm3
	vaesenc	%zmm31,%zmm4,%zmm4
	vaesenc	%zmm31,%zmm5,%zmm5
	vbroadcastf64x2	112(%rdi),%zmm31


	vpclmulqdq	$0x10,%zmm18,%zmm22,%zmm15
	vpclmulqdq	$0x01,%zmm18,%zmm22,%zmm16
	vpclmulqdq	$0x11,%zmm18,%zmm22,%zmm12
	vpclmulqdq	$0x00,%zmm18,%zmm22,%zmm13
	vaesenc	%zmm30,%zmm0,%zmm0
	vaesenc	%zmm30,%zmm3,%zmm3
	vaesenc	%zmm30,%zmm4,%zmm4
	vaesenc	%zmm30,%zmm5,%zmm5
	vbroadcastf64x2	128(%rdi),%zmm30
	vpternlogq	$0x96,%zmm16,%zmm11,%zmm10
	vpternlogq	$0x96,%zmm12,%zmm14,%zmm24
	vpternlogq	$0x96,%zmm13,%zmm7,%zmm25
	vpternlogq	$0x96,%zmm15,%zmm10,%zmm26
	vaesenc	%zmm31,%zmm0,%zmm0
	vaesenc	%zmm31,%zmm3,%zmm3
	vaesenc	%zmm31,%zmm4,%zmm4
	vaesenc	%zmm31,%zmm5,%zmm5
	vbroadcastf64x2	144(%rdi),%zmm31
	vaesenc	%zmm30,%zmm0,%zmm0
	vaesenc	%zmm30,%zmm3,%zmm3
	vaesenc	%zmm30,%zmm4,%zmm4
	vaesenc	%zmm30,%zmm5,%zmm5
	vbroadcastf64x2	160(%rdi),%zmm30
	vaesenc	%zmm31,%zmm0,%zmm0
	vaesenc	%zmm31,%zmm3,%zmm3
	vaesenc	%zmm31,%zmm4,%zmm4
	vaesenc	%zmm31,%zmm5,%zmm5
	vaesenclast	%zmm30,%zmm0,%zmm0
	vaesenclast	%zmm30,%zmm3,%zmm3
	vaesenclast	%zmm30,%zmm4,%zmm4
	vaesenclast	%zmm30,%zmm5,%zmm5
	vpxorq	%zmm17,%zmm0,%zmm0
	vpxorq	%zmm19,%zmm3,%zmm3
	vpxorq	%zmm20,%zmm4,%zmm4
	vpxorq	%zmm21,%zmm5,%zmm5
	vextracti32x4	$3,%zmm5,%xmm11
	movq	%r9,%r10
	vmovdqu8	%zmm0,0(%r10,%r11,1)
	vmovdqu8	%zmm3,64(%r10,%r11,1)
	vmovdqu8	%zmm4,128(%r10,%r11,1)
	vmovdqu8	%zmm5,192(%r10,%r11,1){%k1}
	vmovdqu8	%zmm5,%zmm5{%k1}{z}
	vpshufb	%zmm29,%zmm0,%zmm17
	vpshufb	%zmm29,%zmm3,%zmm19
	vpshufb	%zmm29,%zmm4,%zmm20
	vpshufb	%zmm29,%zmm5,%zmm21
	vextracti32x4	$3,%zmm21,%xmm7
	subq	$16 * (16 - 1),%r8
.L_small_initial_partial_block_DdAkCDyifsiBdnf:








	movq	%r8,(%rdx)
	vmovdqu64	%xmm11,16(%rsi)
	vmovdqu64	112(%rsi),%zmm1
	vpclmulqdq	$0x11,%zmm1,%zmm17,%zmm0
	vpclmulqdq	$0x00,%zmm1,%zmm17,%zmm3
	vpclmulqdq	$0x01,%zmm1,%zmm17,%zmm4
	vpclmulqdq	$0x10,%zmm1,%zmm17,%zmm5
	vmovdqu64	176(%rsi),%zmm1
	vpclmulqdq	$0x11,%zmm1,%zmm19,%zmm8
	vpclmulqdq	$0x00,%zmm1,%zmm19,%zmm22
	vpclmulqdq	$0x01,%zmm1,%zmm19,%zmm30
	vpclmulqdq	$0x10,%zmm1,%zmm19,%zmm31
	vmovdqu64	240(%rsi),%zmm1
	vpclmulqdq	$0x11,%zmm1,%zmm20,%zmm17
	vpclmulqdq	$0x00,%zmm1,%zmm20,%zmm19
	vpternlogq	$0x96,%zmm0,%zmm17,%zmm8
	vpternlogq	$0x96,%zmm3,%zmm19,%zmm22
	vpclmulqdq	$0x01,%zmm1,%zmm20,%zmm17
	vpclmulqdq	$0x10,%zmm1,%zmm20,%zmm19
	vpternlogq	$0x96,%zmm4,%zmm17,%zmm30
	vpternlogq	$0x96,%zmm5,%zmm19,%zmm31
	vmovdqu64	304(%rsi),%ymm1
	vinserti64x2	$2,336(%rsi),%zmm1,%zmm1
	vpclmulqdq	$0x01,%zmm1,%zmm21,%zmm4
	vpclmulqdq	$0x10,%zmm1,%zmm21,%zmm5
	vpclmulqdq	$0x11,%zmm1,%zmm21,%zmm0
	vpclmulqdq	$0x00,%zmm1,%zmm21,%zmm3

	vpxorq	%zmm30,%zmm4,%zmm4
	vpternlogq	$0x96,%zmm31,%zmm26,%zmm5
	vpternlogq	$0x96,%zmm8,%zmm24,%zmm0
	vpternlogq	$0x96,%zmm22,%zmm25,%zmm3

	vpxorq	%zmm5,%zmm4,%zmm4
	vpsrldq	$8,%zmm4,%zmm30
	vpslldq	$8,%zmm4,%zmm31
	vpxorq	%zmm30,%zmm0,%zmm0
	vpxorq	%zmm31,%zmm3,%zmm3
	vextracti64x4	$1,%zmm0,%ymm30
	vpxorq	%ymm30,%ymm0,%ymm0
	vextracti32x4	$1,%ymm0,%xmm30
	vpxorq	%xmm30,%xmm0,%xmm0
	vextracti64x4	$1,%zmm3,%ymm31
	vpxorq	%ymm31,%ymm3,%ymm3
	vextracti32x4	$1,%ymm3,%xmm31
	vpxorq	%xmm31,%xmm3,%xmm3
	vmovdqa64	POLY2(%rip),%xmm1


	vpclmulqdq	$0x01,%xmm3,%xmm1,%xmm4
	vpslldq	$8,%xmm4,%xmm4
	vpxorq	%xmm4,%xmm3,%xmm4


	vpclmulqdq	$0x00,%xmm4,%xmm1,%xmm5
	vpsrldq	$4,%xmm5,%xmm5
	vpclmulqdq	$0x10,%xmm4,%xmm1,%xmm14
	vpslldq	$4,%xmm14,%xmm14
	vpternlogq	$0x96,%xmm0,%xmm5,%xmm14

.L_small_initial_compute_done_DdAkCDyifsiBdnf:
	vpxorq	%xmm7,%xmm14,%xmm14
.L_after_reduction_DdAkCDyifsiBdnf:
	jmp	.L_last_blocks_done_DykuFByfDftjliv
.L_last_num_blocks_is_0_DykuFByfDftjliv:
	vmovdqa64	1024(%rsp),%zmm13
	vmovdqu64	0(%rsp,%rbx,1),%zmm12
	vpclmulqdq	$0x11,%zmm12,%zmm13,%zmm0
	vpclmulqdq	$0x00,%zmm12,%zmm13,%zmm3
	vpclmulqdq	$0x01,%zmm12,%zmm13,%zmm4
	vpclmulqdq	$0x10,%zmm12,%zmm13,%zmm5
	vmovdqa64	1088(%rsp),%zmm13
	vmovdqu64	64(%rsp,%rbx,1),%zmm12
	vpclmulqdq	$0x11,%zmm12,%zmm13,%zmm6
	vpclmulqdq	$0x00,%zmm12,%zmm13,%zmm7
	vpclmulqdq	$0x01,%zmm12,%zmm13,%zmm10
	vpclmulqdq	$0x10,%zmm12,%zmm13,%zmm11
	vpternlogq	$0x96,%zmm10,%zmm4,%zmm26
	vpternlogq	$0x96,%zmm6,%zmm0,%zmm24
	vpternlogq	$0x96,%zmm7,%zmm3,%zmm25
	vpternlogq	$0x96,%zmm11,%zmm5,%zmm26
	vmovdqa64	1152(%rsp),%zmm13
	vmovdqu64	128(%rsp,%rbx,1),%zmm12
	vpclmulqdq	$0x11,%zmm12,%zmm13,%zmm0
	vpclmulqdq	$0x00,%zmm12,%zmm13,%zmm3
	vpclmulqdq	$0x01,%zmm12,%zmm13,%zmm4
	vpclmulqdq	$0x10,%zmm12,%zmm13,%zmm5
	vmovdqa64	1216(%rsp),%zmm13
	vmovdqu64	192(%rsp,%rbx,1),%zmm12
	vpclmulqdq	$0x11,%zmm12,%zmm13,%zmm6
	vpclmulqdq	$0x00,%zmm12,%zmm13,%zmm7
	vpclmulqdq	$0x01,%zmm12,%zmm13,%zmm10
	vpclmulqdq	$0x10,%zmm12,%zmm13,%zmm11

	vpternlogq	$0x96,%zmm10,%zmm4,%zmm26
	vpternlogq	$0x96,%zmm6,%zmm0,%zmm24
	vpternlogq	$0x96,%zmm7,%zmm3,%zmm25
	vpternlogq	$0x96,%zmm11,%zmm5,%zmm26

	vpsrldq	$8,%zmm26,%zmm0
	vpslldq	$8,%zmm26,%zmm3
	vpxorq	%zmm0,%zmm24,%zmm24
	vpxorq	%zmm3,%zmm25,%zmm25
	vextracti64x4	$1,%zmm24,%ymm0
	vpxorq	%ymm0,%ymm24,%ymm24
	vextracti32x4	$1,%ymm24,%xmm0
	vpxorq	%xmm0,%xmm24,%xmm24
	vextracti64x4	$1,%zmm25,%ymm3
	vpxorq	%ymm3,%ymm25,%ymm25
	vextracti32x4	$1,%ymm25,%xmm3
	vpxorq	%xmm3,%xmm25,%xmm25
	vmovdqa64	POLY2(%rip),%xmm4


	vpclmulqdq	$0x01,%xmm25,%xmm4,%xmm0
	vpslldq	$8,%xmm0,%xmm0
	vpxorq	%xmm0,%xmm25,%xmm0


	vpclmulqdq	$0x00,%xmm0,%xmm4,%xmm3
	vpsrldq	$4,%xmm3,%xmm3
	vpclmulqdq	$0x10,%xmm0,%xmm4,%xmm14
	vpslldq	$4,%xmm14,%xmm14
	vpternlogq	$0x96,%xmm24,%xmm3,%xmm14

.L_last_blocks_done_DykuFByfDftjliv:
	vpshufb	%xmm29,%xmm2,%xmm2
	jmp	.L_ghash_done_GlwqCDtffnuucyn
.L_encrypt_32_blocks_GlwqCDtffnuucyn:
	cmpb	$240,%r15b
	jae	.L_16_blocks_overflow_Bvkblpnhegepskm
	vpaddd	%zmm28,%zmm2,%zmm0
	vpaddd	%zmm27,%zmm0,%zmm3
	vpaddd	%zmm27,%zmm3,%zmm4
	vpaddd	%zmm27,%zmm4,%zmm5
	jmp	.L_16_blocks_ok_Bvkblpnhegepskm
.L_16_blocks_overflow_Bvkblpnhegepskm:
	vpshufb	%zmm29,%zmm2,%zmm2
	vmovdqa64	ddq_add_4444(%rip),%zmm5
	vpaddd	ddq_add_1234(%rip),%zmm2,%zmm0
	vpaddd	%zmm5,%zmm0,%zmm3
	vpaddd	%zmm5,%zmm3,%zmm4
	vpaddd	%zmm5,%zmm4,%zmm5
	vpshufb	%zmm29,%zmm0,%zmm0
	vpshufb	%zmm29,%zmm3,%zmm3
	vpshufb	%zmm29,%zmm4,%zmm4
	vpshufb	%zmm29,%zmm5,%zmm5
.L_16_blocks_ok_Bvkblpnhegepskm:
	vbroadcastf64x2	0(%rdi),%zmm30
	vpxorq	768(%rsp),%zmm14,%zmm8
	vmovdqu64	0(%rsp),%zmm1




	vshufi64x2	$255,%zmm5,%zmm5,%zmm2
	addb	$16,%r15b


	vbroadcastf64x2	16(%rdi),%zmm31
	vmovdqu64	64(%rsp),%zmm18
	vmovdqa64	832(%rsp),%zmm22







	vpxorq	%zmm30,%zmm0,%zmm0
	vpxorq	%zmm30,%zmm3,%zmm3
	vpxorq	%zmm30,%zmm4,%zmm4
	vpxorq	%zmm30,%zmm5,%zmm5
	vbroadcastf64x2	32(%rdi),%zmm30



	vpclmulqdq	$0x11,%zmm1,%zmm8,%zmm6
	vpclmulqdq	$0x00,%zmm1,%zmm8,%zmm7
	vpclmulqdq	$0x01,%zmm1,%zmm8,%zmm10
	vpclmulqdq	$0x10,%zmm1,%zmm8,%zmm11
	vmovdqu64	128(%rsp),%zmm1
	vmovdqa64	896(%rsp),%zmm8



	vaesenc	%zmm31,%zmm0,%zmm0
	vaesenc	%zmm31,%zmm3,%zmm3
	vaesenc	%zmm31,%zmm4,%zmm4
	vaesenc	%zmm31,%zmm5,%zmm5
	vbroadcastf64x2	48(%rdi),%zmm31



	vpclmulqdq	$0x10,%zmm18,%zmm22,%zmm15
	vpclmulqdq	$0x01,%zmm18,%zmm22,%zmm16
	vpclmulqdq	$0x11,%zmm18,%zmm22,%zmm12
	vpclmulqdq	$0x00,%zmm18,%zmm22,%zmm13
	vmovdqu64	192(%rsp),%zmm18
	vmovdqa64	960(%rsp),%zmm22



	vaesenc	%zmm30,%zmm0,%zmm0
	vaesenc	%zmm30,%zmm3,%zmm3
	vaesenc	%zmm30,%zmm4,%zmm4
	vaesenc	%zmm30,%zmm5,%zmm5
	vbroadcastf64x2	64(%rdi),%zmm30



	vpclmulqdq	$0x10,%zmm1,%zmm8,%zmm20
	vpclmulqdq	$0x01,%zmm1,%zmm8,%zmm21
	vpclmulqdq	$0x11,%zmm1,%zmm8,%zmm17
	vpclmulqdq	$0x00,%zmm1,%zmm8,%zmm19


	vaesenc	%zmm31,%zmm0,%zmm0
	vaesenc	%zmm31,%zmm3,%zmm3
	vaesenc	%zmm31,%zmm4,%zmm4
	vaesenc	%zmm31,%zmm5,%zmm5
	vbroadcastf64x2	80(%rdi),%zmm31



	vpternlogq	$0x96,%zmm17,%zmm12,%zmm6
	vpternlogq	$0x96,%zmm19,%zmm13,%zmm7
	vpternlogq	$0x96,%zmm21,%zmm16,%zmm11
	vpternlogq	$0x96,%zmm20,%zmm15,%zmm10



	vaesenc	%zmm30,%zmm0,%zmm0
	vaesenc	%zmm30,%zmm3,%zmm3
	vaesenc	%zmm30,%zmm4,%zmm4
	vaesenc	%zmm30,%zmm5,%zmm5
	vbroadcastf64x2	96(%rdi),%zmm30



	vmovdqu8	0(%rcx,%r11,1),%zmm17
	vmovdqu8	64(%rcx,%r11,1),%zmm19
	vmovdqu8	128(%rcx,%r11,1),%zmm20
	vmovdqu8	192(%rcx,%r11,1),%zmm21



	vaesenc	%zmm31,%zmm0,%zmm0
	vaesenc	%zmm31,%zmm3,%zmm3
	vaesenc	%zmm31,%zmm4,%zmm4
	vaesenc	%zmm31,%zmm5,%zmm5
	vbroadcastf64x2	112(%rdi),%zmm31



	vpclmulqdq	$0x10,%zmm18,%zmm22,%zmm15
	vpclmulqdq	$0x01,%zmm18,%zmm22,%zmm16
	vpclmulqdq	$0x11,%zmm18,%zmm22,%zmm12
	vpclmulqdq	$0x00,%zmm18,%zmm22,%zmm13


	vaesenc	%zmm30,%zmm0,%zmm0
	vaesenc	%zmm30,%zmm3,%zmm3
	vaesenc	%zmm30,%zmm4,%zmm4
	vaesenc	%zmm30,%zmm5,%zmm5
	vbroadcastf64x2	128(%rdi),%zmm30
	vpternlogq	$0x96,%zmm16,%zmm11,%zmm10
	vpxorq	%zmm15,%zmm10,%zmm26
	vpxorq	%zmm12,%zmm6,%zmm24
	vpxorq	%zmm13,%zmm7,%zmm25
	vaesenc	%zmm31,%zmm0,%zmm0
	vaesenc	%zmm31,%zmm3,%zmm3
	vaesenc	%zmm31,%zmm4,%zmm4
	vaesenc	%zmm31,%zmm5,%zmm5
	vbroadcastf64x2	144(%rdi),%zmm31
	vaesenc	%zmm30,%zmm0,%zmm0
	vaesenc	%zmm30,%zmm3,%zmm3
	vaesenc	%zmm30,%zmm4,%zmm4
	vaesenc	%zmm30,%zmm5,%zmm5
	vbroadcastf64x2	160(%rdi),%zmm30
	vaesenc	%zmm31,%zmm0,%zmm0
	vaesenc	%zmm31,%zmm3,%zmm3
	vaesenc	%zmm31,%zmm4,%zmm4
	vaesenc	%zmm31,%zmm5,%zmm5
	vaesenclast	%zmm30,%zmm0,%zmm0
	vaesenclast	%zmm30,%zmm3,%zmm3
	vaesenclast	%zmm30,%zmm4,%zmm4
	vaesenclast	%zmm30,%zmm5,%zmm5



	vpxorq	%zmm17,%zmm0,%zmm0
	vpxorq	%zmm19,%zmm3,%zmm3
	vpxorq	%zmm20,%zmm4,%zmm4
	vpxorq	%zmm21,%zmm5,%zmm5



	movq	%r9,%r10
	vmovdqu8	%zmm0,0(%r10,%r11,1)
	vmovdqu8	%zmm3,64(%r10,%r11,1)
	vmovdqu8	%zmm4,128(%r10,%r11,1)
	vmovdqu8	%zmm5,192(%r10,%r11,1)
	vpshufb	%zmm29,%zmm0,%zmm0
	vpshufb	%zmm29,%zmm3,%zmm3
	vpshufb	%zmm29,%zmm4,%zmm4
	vpshufb	%zmm29,%zmm5,%zmm5
	vmovdqa64	%zmm0,1280(%rsp)
	vmovdqa64	%zmm3,1344(%rsp)
	vmovdqa64	%zmm4,1408(%rsp)
	vmovdqa64	%zmm5,1472(%rsp)
	cmpb	$240,%r15b
	jae	.L_16_blocks_overflow_DrkCqtgCmuppDwv
	vpaddd	%zmm28,%zmm2,%zmm0
	vpaddd	%zmm27,%zmm0,%zmm3
	vpaddd	%zmm27,%zmm3,%zmm4
	vpaddd	%zmm27,%zmm4,%zmm5
	jmp	.L_16_blocks_ok_DrkCqtgCmuppDwv
.L_16_blocks_overflow_DrkCqtgCmuppDwv:
	vpshufb	%zmm29,%zmm2,%zmm2
	vmovdqa64	ddq_add_4444(%rip),%zmm5
	vpaddd	ddq_add_1234(%rip),%zmm2,%zmm0
	vpaddd	%zmm5,%zmm0,%zmm3
	vpaddd	%zmm5,%zmm3,%zmm4
	vpaddd	%zmm5,%zmm4,%zmm5
	vpshufb	%zmm29,%zmm0,%zmm0
	vpshufb	%zmm29,%zmm3,%zmm3
	vpshufb	%zmm29,%zmm4,%zmm4
	vpshufb	%zmm29,%zmm5,%zmm5
.L_16_blocks_ok_DrkCqtgCmuppDwv:
	vbroadcastf64x2	0(%rdi),%zmm30
	vmovdqa64	1024(%rsp),%zmm8
	vmovdqu64	256(%rsp),%zmm1




	vshufi64x2	$255,%zmm5,%zmm5,%zmm2
	addb	$16,%r15b


	vbroadcastf64x2	16(%rdi),%zmm31
	vmovdqu64	320(%rsp),%zmm18
	vmovdqa64	1088(%rsp),%zmm22







	vpxorq	%zmm30,%zmm0,%zmm0
	vpxorq	%zmm30,%zmm3,%zmm3
	vpxorq	%zmm30,%zmm4,%zmm4
	vpxorq	%zmm30,%zmm5,%zmm5
	vbroadcastf64x2	32(%rdi),%zmm30



	vpclmulqdq	$0x11,%zmm1,%zmm8,%zmm6
	vpclmulqdq	$0x00,%zmm1,%zmm8,%zmm7
	vpclmulqdq	$0x01,%zmm1,%zmm8,%zmm10
	vpclmulqdq	$0x10,%zmm1,%zmm8,%zmm11
	vmovdqu64	384(%rsp),%zmm1
	vmovdqa64	1152(%rsp),%zmm8



	vaesenc	%zmm31,%zmm0,%zmm0
	vaesenc	%zmm31,%zmm3,%zmm3
	vaesenc	%zmm31,%zmm4,%zmm4
	vaesenc	%zmm31,%zmm5,%zmm5
	vbroadcastf64x2	48(%rdi),%zmm31



	vpclmulqdq	$0x10,%zmm18,%zmm22,%zmm15
	vpclmulqdq	$0x01,%zmm18,%zmm22,%zmm16
	vpclmulqdq	$0x11,%zmm18,%zmm22,%zmm12
	vpclmulqdq	$0x00,%zmm18,%zmm22,%zmm13
	vmovdqu64	448(%rsp),%zmm18
	vmovdqa64	1216(%rsp),%zmm22



	vaesenc	%zmm30,%zmm0,%zmm0
	vaesenc	%zmm30,%zmm3,%zmm3
	vaesenc	%zmm30,%zmm4,%zmm4
	vaesenc	%zmm30,%zmm5,%zmm5
	vbroadcastf64x2	64(%rdi),%zmm30



	vpclmulqdq	$0x10,%zmm1,%zmm8,%zmm20
	vpclmulqdq	$0x01,%zmm1,%zmm8,%zmm21
	vpclmulqdq	$0x11,%zmm1,%zmm8,%zmm17
	vpclmulqdq	$0x00,%zmm1,%zmm8,%zmm19


	vaesenc	%zmm31,%zmm0,%zmm0
	vaesenc	%zmm31,%zmm3,%zmm3
	vaesenc	%zmm31,%zmm4,%zmm4
	vaesenc	%zmm31,%zmm5,%zmm5
	vbroadcastf64x2	80(%rdi),%zmm31



	vpternlogq	$0x96,%zmm17,%zmm12,%zmm6
	vpternlogq	$0x96,%zmm19,%zmm13,%zmm7
	vpternlogq	$0x96,%zmm21,%zmm16,%zmm11
	vpternlogq	$0x96,%zmm20,%zmm15,%zmm10



	vaesenc	%zmm30,%zmm0,%zmm0
	vaesenc	%zmm30,%zmm3,%zmm3
	vaesenc	%zmm30,%zmm4,%zmm4
	vaesenc	%zmm30,%zmm5,%zmm5
	vbroadcastf64x2	96(%rdi),%zmm30



	vmovdqu8	256(%rcx,%r11,1),%zmm17
	vmovdqu8	320(%rcx,%r11,1),%zmm19
	vmovdqu8	384(%rcx,%r11,1),%zmm20
	vmovdqu8	448(%rcx,%r11,1),%zmm21



	vaesenc	%zmm31,%zmm0,%zmm0
	vaesenc	%zmm31,%zmm3,%zmm3
	vaesenc	%zmm31,%zmm4,%zmm4
	vaesenc	%zmm31,%zmm5,%zmm5
	vbroadcastf64x2	112(%rdi),%zmm31



	vpclmulqdq	$0x10,%zmm18,%zmm22,%zmm15
	vpclmulqdq	$0x01,%zmm18,%zmm22,%zmm16
	vpclmulqdq	$0x11,%zmm18,%zmm22,%zmm12
	vpclmulqdq	$0x00,%zmm18,%zmm22,%zmm13


	vaesenc	%zmm30,%zmm0,%zmm0
	vaesenc	%zmm30,%zmm3,%zmm3
	vaesenc	%zmm30,%zmm4,%zmm4
	vaesenc	%zmm30,%zmm5,%zmm5
	vbroadcastf64x2	128(%rdi),%zmm30
	vpternlogq	$0x96,%zmm16,%zmm11,%zmm10
	vpternlogq	$0x96,%zmm15,%zmm10,%zmm26
	vpternlogq	$0x96,%zmm12,%zmm6,%zmm24
	vpternlogq	$0x96,%zmm13,%zmm7,%zmm25
	vaesenc	%zmm31,%zmm0,%zmm0
	vaesenc	%zmm31,%zmm3,%zmm3
	vaesenc	%zmm31,%zmm4,%zmm4
	vaesenc	%zmm31,%zmm5,%zmm5
	vbroadcastf64x2	144(%rdi),%zmm31
	vaesenc	%zmm30,%zmm0,%zmm0
	vaesenc	%zmm30,%zmm3,%zmm3
	vaesenc	%zmm30,%zmm4,%zmm4
	vaesenc	%zmm30,%zmm5,%zmm5
	vbroadcastf64x2	160(%rdi),%zmm30
	vaesenc	%zmm31,%zmm0,%zmm0
	vaesenc	%zmm31,%zmm3,%zmm3
	vaesenc	%zmm31,%zmm4,%zmm4
	vaesenc	%zmm31,%zmm5,%zmm5
	vaesenclast	%zmm30,%zmm0,%zmm0
	vaesenclast	%zmm30,%zmm3,%zmm3
	vaesenclast	%zmm30,%zmm4,%zmm4
	vaesenclast	%zmm30,%zmm5,%zmm5



	vpxorq	%zmm17,%zmm0,%zmm0
	vpxorq	%zmm19,%zmm3,%zmm3
	vpxorq	%zmm20,%zmm4,%zmm4
	vpxorq	%zmm21,%zmm5,%zmm5



	movq	%r9,%r10
	vmovdqu8	%zmm0,256(%r10,%r11,1)
	vmovdqu8	%zmm3,320(%r10,%r11,1)
	vmovdqu8	%zmm4,384(%r10,%r11,1)
	vmovdqu8	%zmm5,448(%r10,%r11,1)
	vpshufb	%zmm29,%zmm0,%zmm0
	vpshufb	%zmm29,%zmm3,%zmm3
	vpshufb	%zmm29,%zmm4,%zmm4
	vpshufb	%zmm29,%zmm5,%zmm5
	vmovdqa64	%zmm0,768(%rsp)
	vmovdqa64	%zmm3,832(%rsp)
	vmovdqa64	%zmm4,896(%rsp)
	vmovdqa64	%zmm5,960(%rsp)
	vmovdqa64	1280(%rsp),%zmm13
	vmovdqu64	512(%rsp),%zmm12
	vpclmulqdq	$0x11,%zmm12,%zmm13,%zmm0
	vpclmulqdq	$0x00,%zmm12,%zmm13,%zmm3
	vpclmulqdq	$0x01,%zmm12,%zmm13,%zmm4
	vpclmulqdq	$0x10,%zmm12,%zmm13,%zmm5
	vmovdqa64	1344(%rsp),%zmm13
	vmovdqu64	576(%rsp),%zmm12
	vpclmulqdq	$0x11,%zmm12,%zmm13,%zmm6
	vpclmulqdq	$0x00,%zmm12,%zmm13,%zmm7
	vpclmulqdq	$0x01,%zmm12,%zmm13,%zmm10
	vpclmulqdq	$0x10,%zmm12,%zmm13,%zmm11
	vpternlogq	$0x96,%zmm10,%zmm4,%zmm26
	vpternlogq	$0x96,%zmm6,%zmm0,%zmm24
	vpternlogq	$0x96,%zmm7,%zmm3,%zmm25
	vpternlogq	$0x96,%zmm11,%zmm5,%zmm26
	vmovdqa64	1408(%rsp),%zmm13
	vmovdqu64	640(%rsp),%zmm12
	vpclmulqdq	$0x11,%zmm12,%zmm13,%zmm0
	vpclmulqdq	$0x00,%zmm12,%zmm13,%zmm3
	vpclmulqdq	$0x01,%zmm12,%zmm13,%zmm4
	vpclmulqdq	$0x10,%zmm12,%zmm13,%zmm5
	vmovdqa64	1472(%rsp),%zmm13
	vmovdqu64	704(%rsp),%zmm12
	vpclmulqdq	$0x11,%zmm12,%zmm13,%zmm6
	vpclmulqdq	$0x00,%zmm12,%zmm13,%zmm7
	vpclmulqdq	$0x01,%zmm12,%zmm13,%zmm10
	vpclmulqdq	$0x10,%zmm12,%zmm13,%zmm11

	vpternlogq	$0x96,%zmm10,%zmm4,%zmm26
	vpternlogq	$0x96,%zmm6,%zmm0,%zmm24
	vpternlogq	$0x96,%zmm7,%zmm3,%zmm25
	vpternlogq	$0x96,%zmm11,%zmm5,%zmm26

	vpsrldq	$8,%zmm26,%zmm0
	vpslldq	$8,%zmm26,%zmm3
	vpxorq	%zmm0,%zmm24,%zmm24
	vpxorq	%zmm3,%zmm25,%zmm25
	vextracti64x4	$1,%zmm24,%ymm0
	vpxorq	%ymm0,%ymm24,%ymm24
	vextracti32x4	$1,%ymm24,%xmm0
	vpxorq	%xmm0,%xmm24,%xmm24
	vextracti64x4	$1,%zmm25,%ymm3
	vpxorq	%ymm3,%ymm25,%ymm25
	vextracti32x4	$1,%ymm25,%xmm3
	vpxorq	%xmm3,%xmm25,%xmm25
	vmovdqa64	POLY2(%rip),%xmm4


	vpclmulqdq	$0x01,%xmm25,%xmm4,%xmm0
	vpslldq	$8,%xmm0,%xmm0
	vpxorq	%xmm0,%xmm25,%xmm0


	vpclmulqdq	$0x00,%xmm0,%xmm4,%xmm3
	vpsrldq	$4,%xmm3,%xmm3
	vpclmulqdq	$0x10,%xmm0,%xmm4,%xmm14
	vpslldq	$4,%xmm14,%xmm14
	vpternlogq	$0x96,%xmm24,%xmm3,%xmm14

	subq	$512,%r8
	addq	$512,%r11
	movl	%r8d,%r10d
	andl	$~15,%r10d
	movl	$512,%ebx
	subl	%r10d,%ebx
	movl	%r8d,%r10d
	addl	$15,%r10d
	shrl	$4,%r10d
	je	.L_last_num_blocks_is_0_FyDzdcomjlhBCwo

	cmpl	$8,%r10d
	je	.L_last_num_blocks_is_8_FyDzdcomjlhBCwo
	jb	.L_last_num_blocks_is_7_1_FyDzdcomjlhBCwo


	cmpl	$12,%r10d
	je	.L_last_num_blocks_is_12_FyDzdcomjlhBCwo
	jb	.L_last_num_blocks_is_11_9_FyDzdcomjlhBCwo


	cmpl	$15,%r10d
	je	.L_last_num_blocks_is_15_FyDzdcomjlhBCwo
	ja	.L_last_num_blocks_is_16_FyDzdcomjlhBCwo
	cmpl	$14,%r10d
	je	.L_last_num_blocks_is_14_FyDzdcomjlhBCwo
	jmp	.L_last_num_blocks_is_13_FyDzdcomjlhBCwo

.L_last_num_blocks_is_11_9_FyDzdcomjlhBCwo:

	cmpl	$10,%r10d
	je	.L_last_num_blocks_is_10_FyDzdcomjlhBCwo
	ja	.L_last_num_blocks_is_11_FyDzdcomjlhBCwo
	jmp	.L_last_num_blocks_is_9_FyDzdcomjlhBCwo

.L_last_num_blocks_is_7_1_FyDzdcomjlhBCwo:
	cmpl	$4,%r10d
	je	.L_last_num_blocks_is_4_FyDzdcomjlhBCwo
	jb	.L_last_num_blocks_is_3_1_FyDzdcomjlhBCwo

	cmpl	$6,%r10d
	ja	.L_last_num_blocks_is_7_FyDzdcomjlhBCwo
	je	.L_last_num_blocks_is_6_FyDzdcomjlhBCwo
	jmp	.L_last_num_blocks_is_5_FyDzdcomjlhBCwo

.L_last_num_blocks_is_3_1_FyDzdcomjlhBCwo:

	cmpl	$2,%r10d
	ja	.L_last_num_blocks_is_3_FyDzdcomjlhBCwo
	je	.L_last_num_blocks_is_2_FyDzdcomjlhBCwo
.L_last_num_blocks_is_1_FyDzdcomjlhBCwo:
	leaq	byte64_len_to_mask_table(%rip),%r10
	movq	%r8,%rax
	kmovq	(%r10,%rax,8),%k1
	cmpl	$255,%r15d
	jae	.L_16_blocks_overflow_BsbvhaFkCfuAGjk
	vpaddd	%xmm28,%xmm2,%xmm0
	jmp	.L_16_blocks_ok_BsbvhaFkCfuAGjk

.L_16_blocks_overflow_BsbvhaFkCfuAGjk:
	vpshufb	%zmm29,%zmm2,%zmm2
	vpaddd	ddq_add_1234(%rip),%zmm2,%zmm0
	vpshufb	%xmm29,%xmm0,%xmm0
.L_16_blocks_ok_BsbvhaFkCfuAGjk:




	vbroadcastf64x2	0(%rdi),%zmm30
	vpxorq	768(%rsp),%zmm14,%zmm8
	vmovdqu64	0(%rsp,%rbx,1),%zmm1
	vextracti32x4	$0,%zmm0,%xmm2
	vshufi64x2	$0,%zmm2,%zmm2,%zmm2


	vbroadcastf64x2	16(%rdi),%zmm31
	vmovdqu64	64(%rsp,%rbx,1),%zmm18
	vmovdqa64	832(%rsp),%zmm22
	vpxorq	%xmm30,%xmm0,%xmm0
	vbroadcastf64x2	32(%rdi),%zmm30


	vpclmulqdq	$0x11,%zmm1,%zmm8,%zmm14
	vpclmulqdq	$0x00,%zmm1,%zmm8,%zmm7
	vpclmulqdq	$0x01,%zmm1,%zmm8,%zmm10
	vpclmulqdq	$0x10,%zmm1,%zmm8,%zmm11
	vmovdqu64	128(%rsp,%rbx,1),%zmm1
	vmovdqa64	896(%rsp),%zmm8
	vaesenc	%xmm31,%xmm0,%xmm0
	vbroadcastf64x2	48(%rdi),%zmm31


	vpclmulqdq	$0x10,%zmm18,%zmm22,%zmm15
	vpclmulqdq	$0x01,%zmm18,%zmm22,%zmm16
	vpclmulqdq	$0x11,%zmm18,%zmm22,%zmm12
	vpclmulqdq	$0x00,%zmm18,%zmm22,%zmm13
	vmovdqu64	192(%rsp,%rbx,1),%zmm18
	vmovdqa64	960(%rsp),%zmm22
	vaesenc	%xmm30,%xmm0,%xmm0
	vbroadcastf64x2	64(%rdi),%zmm30


	vpclmulqdq	$0x10,%zmm1,%zmm8,%zmm20
	vpclmulqdq	$0x01,%zmm1,%zmm8,%zmm21
	vpclmulqdq	$0x11,%zmm1,%zmm8,%zmm17
	vpclmulqdq	$0x00,%zmm1,%zmm8,%zmm19
	vaesenc	%xmm31,%xmm0,%xmm0
	vbroadcastf64x2	80(%rdi),%zmm31


	vpternlogq	$0x96,%zmm17,%zmm12,%zmm14
	vpternlogq	$0x96,%zmm19,%zmm13,%zmm7
	vpternlogq	$0x96,%zmm21,%zmm16,%zmm11
	vpternlogq	$0x96,%zmm20,%zmm15,%zmm10
	vaesenc	%xmm30,%xmm0,%xmm0
	vbroadcastf64x2	96(%rdi),%zmm30
	vmovdqu8	0(%rcx,%r11,1),%xmm17{%k1}{z}
	vaesenc	%xmm31,%xmm0,%xmm0
	vbroadcastf64x2	112(%rdi),%zmm31


	vpclmulqdq	$0x10,%zmm18,%zmm22,%zmm15
	vpclmulqdq	$0x01,%zmm18,%zmm22,%zmm16
	vpclmulqdq	$0x11,%zmm18,%zmm22,%zmm12
	vpclmulqdq	$0x00,%zmm18,%zmm22,%zmm13
	vaesenc	%xmm30,%xmm0,%xmm0
	vbroadcastf64x2	128(%rdi),%zmm30
	vpternlogq	$0x96,%zmm16,%zmm11,%zmm10
	vpxorq	%zmm12,%zmm14,%zmm24
	vpxorq	%zmm13,%zmm7,%zmm25
	vpxorq	%zmm15,%zmm10,%zmm26
	vaesenc	%xmm31,%xmm0,%xmm0
	vbroadcastf64x2	144(%rdi),%zmm31
	vaesenc	%xmm30,%xmm0,%xmm0
	vbroadcastf64x2	160(%rdi),%zmm30
	vaesenc	%xmm31,%xmm0,%xmm0
	vaesenclast	%xmm30,%xmm0,%xmm0
	vpxorq	%xmm17,%xmm0,%xmm0
	vextracti32x4	$0,%zmm0,%xmm11
	movq	%r9,%r10
	vmovdqu8	%xmm0,0(%r10,%r11,1){%k1}
	vmovdqu8	%zmm0,%zmm0{%k1}{z}
	vpshufb	%xmm29,%xmm0,%xmm17
	vextracti32x4	$0,%zmm17,%xmm7


	cmpq	$16,%r8
	jl	.L_small_initial_partial_block_CupEGGBgpkvAlfk





	subq	$16,%r8
	movq	$0,(%rdx)
	vmovdqu64	336(%rsi),%xmm1
	vpclmulqdq	$0x01,%xmm1,%xmm17,%xmm4
	vpclmulqdq	$0x10,%xmm1,%xmm17,%xmm5
	vpclmulqdq	$0x11,%xmm1,%xmm17,%xmm0
	vpclmulqdq	$0x00,%xmm1,%xmm17,%xmm3
	vpxorq	%zmm26,%zmm4,%zmm4
	vpxorq	%zmm24,%zmm0,%zmm0
	vpxorq	%zmm25,%zmm3,%zmm3

	vpxorq	%zmm5,%zmm4,%zmm4
	vpsrldq	$8,%zmm4,%zmm30
	vpslldq	$8,%zmm4,%zmm31
	vpxorq	%zmm30,%zmm0,%zmm0
	vpxorq	%zmm31,%zmm3,%zmm3
	vextracti64x4	$1,%zmm0,%ymm30
	vpxorq	%ymm30,%ymm0,%ymm0
	vextracti32x4	$1,%ymm0,%xmm30
	vpxorq	%xmm30,%xmm0,%xmm0
	vextracti64x4	$1,%zmm3,%ymm31
	vpxorq	%ymm31,%ymm3,%ymm3
	vextracti32x4	$1,%ymm3,%xmm31
	vpxorq	%xmm31,%xmm3,%xmm3
	vmovdqa64	POLY2(%rip),%xmm1


	vpclmulqdq	$0x01,%xmm3,%xmm1,%xmm4
	vpslldq	$8,%xmm4,%xmm4
	vpxorq	%xmm4,%xmm3,%xmm4


	vpclmulqdq	$0x00,%xmm4,%xmm1,%xmm5
	vpsrldq	$4,%xmm5,%xmm5
	vpclmulqdq	$0x10,%xmm4,%xmm1,%xmm14
	vpslldq	$4,%xmm14,%xmm14
	vpternlogq	$0x96,%xmm0,%xmm5,%xmm14

	jmp	.L_small_initial_compute_done_CupEGGBgpkvAlfk
.L_small_initial_partial_block_CupEGGBgpkvAlfk:








	movq	%r8,(%rdx)
	vmovdqu64	%xmm11,16(%rsi)


	vpsrldq	$8,%zmm26,%zmm0
	vpslldq	$8,%zmm26,%zmm3
	vpxorq	%zmm0,%zmm24,%zmm24
	vpxorq	%zmm3,%zmm25,%zmm25
	vextracti64x4	$1,%zmm24,%ymm0
	vpxorq	%ymm0,%ymm24,%ymm24
	vextracti32x4	$1,%ymm24,%xmm0
	vpxorq	%xmm0,%xmm24,%xmm24
	vextracti64x4	$1,%zmm25,%ymm3
	vpxorq	%ymm3,%ymm25,%ymm25
	vextracti32x4	$1,%ymm25,%xmm3
	vpxorq	%xmm3,%xmm25,%xmm25
	vmovdqa64	POLY2(%rip),%xmm0


	vpclmulqdq	$0x01,%xmm25,%xmm0,%xmm3
	vpslldq	$8,%xmm3,%xmm3
	vpxorq	%xmm3,%xmm25,%xmm3


	vpclmulqdq	$0x00,%xmm3,%xmm0,%xmm4
	vpsrldq	$4,%xmm4,%xmm4
	vpclmulqdq	$0x10,%xmm3,%xmm0,%xmm14
	vpslldq	$4,%xmm14,%xmm14
	vpternlogq	$0x96,%xmm24,%xmm4,%xmm14












	vpxorq	%xmm7,%xmm14,%xmm14

	jmp	.L_after_reduction_CupEGGBgpkvAlfk
.L_small_initial_compute_done_CupEGGBgpkvAlfk:
.L_after_reduction_CupEGGBgpkvAlfk:
	jmp	.L_last_blocks_done_FyDzdcomjlhBCwo
.L_last_num_blocks_is_2_FyDzdcomjlhBCwo:
	leaq	byte64_len_to_mask_table(%rip),%r10
	movq	%r8,%rax
	kmovq	(%r10,%rax,8),%k1
	cmpl	$254,%r15d
	jae	.L_16_blocks_overflow_dldvFlovfdcodwq
	vpaddd	%ymm28,%ymm2,%ymm0
	jmp	.L_16_blocks_ok_dldvFlovfdcodwq

.L_16_blocks_overflow_dldvFlovfdcodwq:
	vpshufb	%zmm29,%zmm2,%zmm2
	vpaddd	ddq_add_1234(%rip),%zmm2,%zmm0
	vpshufb	%ymm29,%ymm0,%ymm0
.L_16_blocks_ok_dldvFlovfdcodwq:




	vbroadcastf64x2	0(%rdi),%zmm30
	vpxorq	768(%rsp),%zmm14,%zmm8
	vmovdqu64	0(%rsp,%rbx,1),%zmm1
	vextracti32x4	$1,%zmm0,%xmm2
	vshufi64x2	$0,%zmm2,%zmm2,%zmm2


	vbroadcastf64x2	16(%rdi),%zmm31
	vmovdqu64	64(%rsp,%rbx,1),%zmm18
	vmovdqa64	832(%rsp),%zmm22
	vpxorq	%ymm30,%ymm0,%ymm0
	vbroadcastf64x2	32(%rdi),%zmm30


	vpclmulqdq	$0x11,%zmm1,%zmm8,%zmm14
	vpclmulqdq	$0x00,%zmm1,%zmm8,%zmm7
	vpclmulqdq	$0x01,%zmm1,%zmm8,%zmm10
	vpclmulqdq	$0x10,%zmm1,%zmm8,%zmm11
	vmovdqu64	128(%rsp,%rbx,1),%zmm1
	vmovdqa64	896(%rsp),%zmm8
	vaesenc	%ymm31,%ymm0,%ymm0
	vbroadcastf64x2	48(%rdi),%zmm31


	vpclmulqdq	$0x10,%zmm18,%zmm22,%zmm15
	vpclmulqdq	$0x01,%zmm18,%zmm22,%zmm16
	vpclmulqdq	$0x11,%zmm18,%zmm22,%zmm12
	vpclmulqdq	$0x00,%zmm18,%zmm22,%zmm13
	vmovdqu64	192(%rsp,%rbx,1),%zmm18
	vmovdqa64	960(%rsp),%zmm22
	vaesenc	%ymm30,%ymm0,%ymm0
	vbroadcastf64x2	64(%rdi),%zmm30


	vpclmulqdq	$0x10,%zmm1,%zmm8,%zmm20
	vpclmulqdq	$0x01,%zmm1,%zmm8,%zmm21
	vpclmulqdq	$0x11,%zmm1,%zmm8,%zmm17
	vpclmulqdq	$0x00,%zmm1,%zmm8,%zmm19
	vaesenc	%ymm31,%ymm0,%ymm0
	vbroadcastf64x2	80(%rdi),%zmm31


	vpternlogq	$0x96,%zmm17,%zmm12,%zmm14
	vpternlogq	$0x96,%zmm19,%zmm13,%zmm7
	vpternlogq	$0x96,%zmm21,%zmm16,%zmm11
	vpternlogq	$0x96,%zmm20,%zmm15,%zmm10
	vaesenc	%ymm30,%ymm0,%ymm0
	vbroadcastf64x2	96(%rdi),%zmm30
	vmovdqu8	0(%rcx,%r11,1),%ymm17{%k1}{z}
	vaesenc	%ymm31,%ymm0,%ymm0
	vbroadcastf64x2	112(%rdi),%zmm31


	vpclmulqdq	$0x10,%zmm18,%zmm22,%zmm15
	vpclmulqdq	$0x01,%zmm18,%zmm22,%zmm16
	vpclmulqdq	$0x11,%zmm18,%zmm22,%zmm12
	vpclmulqdq	$0x00,%zmm18,%zmm22,%zmm13
	vaesenc	%ymm30,%ymm0,%ymm0
	vbroadcastf64x2	128(%rdi),%zmm30
	vpternlogq	$0x96,%zmm16,%zmm11,%zmm10
	vpxorq	%zmm12,%zmm14,%zmm24
	vpxorq	%zmm13,%zmm7,%zmm25
	vpxorq	%zmm15,%zmm10,%zmm26
	vaesenc	%ymm31,%ymm0,%ymm0
	vbroadcastf64x2	144(%rdi),%zmm31
	vaesenc	%ymm30,%ymm0,%ymm0
	vbroadcastf64x2	160(%rdi),%zmm30
	vaesenc	%ymm31,%ymm0,%ymm0
	vaesenclast	%ymm30,%ymm0,%ymm0
	vpxorq	%ymm17,%ymm0,%ymm0
	vextracti32x4	$1,%zmm0,%xmm11
	movq	%r9,%r10
	vmovdqu8	%ymm0,0(%r10,%r11,1){%k1}
	vmovdqu8	%zmm0,%zmm0{%k1}{z}
	vpshufb	%ymm29,%ymm0,%ymm17
	vextracti32x4	$1,%zmm17,%xmm7
	subq	$16 * (2 - 1),%r8


	cmpq	$16,%r8
	jl	.L_small_initial_partial_block_bBnpxABsCzdExfl





	subq	$16,%r8
	movq	$0,(%rdx)
	vmovdqu64	320(%rsi),%ymm1
	vpclmulqdq	$0x01,%ymm1,%ymm17,%ymm4
	vpclmulqdq	$0x10,%ymm1,%ymm17,%ymm5
	vpclmulqdq	$0x11,%ymm1,%ymm17,%ymm0
	vpclmulqdq	$0x00,%ymm1,%ymm17,%ymm3
	vpxorq	%zmm26,%zmm4,%zmm4
	vpxorq	%zmm24,%zmm0,%zmm0
	vpxorq	%zmm25,%zmm3,%zmm3

	vpxorq	%zmm5,%zmm4,%zmm4
	vpsrldq	$8,%zmm4,%zmm30
	vpslldq	$8,%zmm4,%zmm31
	vpxorq	%zmm30,%zmm0,%zmm0
	vpxorq	%zmm31,%zmm3,%zmm3
	vextracti64x4	$1,%zmm0,%ymm30
	vpxorq	%ymm30,%ymm0,%ymm0
	vextracti32x4	$1,%ymm0,%xmm30
	vpxorq	%xmm30,%xmm0,%xmm0
	vextracti64x4	$1,%zmm3,%ymm31
	vpxorq	%ymm31,%ymm3,%ymm3
	vextracti32x4	$1,%ymm3,%xmm31
	vpxorq	%xmm31,%xmm3,%xmm3
	vmovdqa64	POLY2(%rip),%xmm1


	vpclmulqdq	$0x01,%xmm3,%xmm1,%xmm4
	vpslldq	$8,%xmm4,%xmm4
	vpxorq	%xmm4,%xmm3,%xmm4


